	.section	__TEXT,__text,regular,pure_instructions
	.build_version macos, 10, 14	sdk_version 10, 14
	.globl	__Z5OhYesi              ## -- Begin function _Z5OhYesi
	.p2align	4, 0x90
__Z5OhYesi:                             ## @_Z5OhYesi
	.cfi_startproc
## %bb.0:
	pushq	%rbp
	.cfi_def_cfa_offset 16
	.cfi_offset %rbp, -16
	movq	%rsp, %rbp
	.cfi_def_cfa_register %rbp
	movl	%edi, -4(%rbp)
	movl	-4(%rbp), %edi
	movl	%edi, _Oh(%rip)
	popq	%rbp
	retq
	.cfi_endproc
                                        ## -- End function
	.globl	_main                   ## -- Begin function main
	.p2align	4, 0x90
_main:                                  ## @main
	.cfi_startproc
## %bb.0:
	pushq	%rbp
	.cfi_def_cfa_offset 16
	.cfi_offset %rbp, -16
	movq	%rsp, %rbp
	.cfi_def_cfa_register %rbp
	subq	$325744, %rsp           ## imm = 0x4F870
	movl	$0, -4(%rbp)
	movl	%edi, -8(%rbp)
	movq	%rsi, -16(%rbp)
	cmpl	$1, -8(%rbp)
	jle	LBB1_2
## %bb.1:
	movq	-16(%rbp), %rax
	movq	8(%rax), %rdi
	callq	_atoi
	movl	%eax, -325744(%rbp)     ## 4-byte Spill
	jmp	LBB1_3
LBB1_2:
	movl	$10000000, %eax         ## imm = 0x989680
	movl	%eax, -325744(%rbp)     ## 4-byte Spill
	jmp	LBB1_3
LBB1_3:
	movl	-325744(%rbp), %eax     ## 4-byte Reload
	movl	%eax, -20(%rbp)
	movl	$5050, -24(%rbp)        ## imm = 0x13BA
	movl	$5, -28(%rbp)
	movl	$5, -32(%rbp)
	movl	$5, -36(%rbp)
	movl	$5, -40(%rbp)
	movl	$5, -44(%rbp)
	movl	$5, -48(%rbp)
	movl	$5, -52(%rbp)
	movl	$5, -56(%rbp)
	movl	$5, -60(%rbp)
	movl	$5, -64(%rbp)
	movl	$5, -68(%rbp)
	movl	$5, -72(%rbp)
	movl	$5, -76(%rbp)
	movl	$5, -80(%rbp)
	movl	$5, -84(%rbp)
	movl	$5, -88(%rbp)
	movl	$5, -92(%rbp)
	movl	$5, -96(%rbp)
	movl	$5, -100(%rbp)
	movl	$5, -104(%rbp)
	movl	$5, -108(%rbp)
	movl	$5, -112(%rbp)
	movl	$5, -116(%rbp)
	movl	$5, -120(%rbp)
	movl	$5, -124(%rbp)
	movl	$5, -128(%rbp)
	movl	$5, -132(%rbp)
	movl	$5, -136(%rbp)
	movl	$5, -140(%rbp)
	movl	$5, -144(%rbp)
	movl	$5, -148(%rbp)
	movl	$5, -152(%rbp)
	movl	$5, -156(%rbp)
	movl	$5, -160(%rbp)
	movl	$5, -164(%rbp)
	movl	$5, -168(%rbp)
	movl	$5, -172(%rbp)
	movl	$5, -176(%rbp)
	movl	$5, -180(%rbp)
	movl	$5, -184(%rbp)
	movl	$5, -188(%rbp)
	movl	$5, -192(%rbp)
	movl	$5, -196(%rbp)
	movl	$5, -200(%rbp)
	movl	$5, -204(%rbp)
	movl	$5, -208(%rbp)
	movl	$5, -212(%rbp)
	movl	$5, -216(%rbp)
	movl	$5, -220(%rbp)
	movl	$5, -224(%rbp)
	movl	$5, -228(%rbp)
	movl	$5, -232(%rbp)
	movl	$5, -236(%rbp)
	movl	$5, -240(%rbp)
	movl	$5, -244(%rbp)
	movl	$5, -248(%rbp)
	movl	$5, -252(%rbp)
	movl	$5, -256(%rbp)
	movl	$5, -260(%rbp)
	movl	$5, -264(%rbp)
	movl	$5, -268(%rbp)
	movl	$5, -272(%rbp)
	movl	$5, -276(%rbp)
	movl	$5, -280(%rbp)
	movl	$5, -284(%rbp)
	movl	$5, -288(%rbp)
	movl	$5, -292(%rbp)
	movl	$5, -296(%rbp)
	movl	$5, -300(%rbp)
	movl	$5, -304(%rbp)
	movl	$5, -308(%rbp)
	movl	$5, -312(%rbp)
	movl	$5, -316(%rbp)
	movl	$5, -320(%rbp)
	movl	$5, -324(%rbp)
	movl	$5, -328(%rbp)
	movl	$5, -332(%rbp)
	movl	$5, -336(%rbp)
	movl	$5, -340(%rbp)
	movl	$5, -344(%rbp)
	movl	$5, -348(%rbp)
	movl	$5, -352(%rbp)
	movl	$5, -356(%rbp)
	movl	$5, -360(%rbp)
	movl	$5, -364(%rbp)
	movl	$5, -368(%rbp)
	movl	$5, -372(%rbp)
	movl	$5, -376(%rbp)
	movl	$5, -380(%rbp)
	movl	$5, -384(%rbp)
	movl	$5, -388(%rbp)
	movl	$5, -392(%rbp)
	movl	$5, -396(%rbp)
	movl	$5, -400(%rbp)
	movl	$5, -404(%rbp)
	movl	$5, -408(%rbp)
	movl	$5, -412(%rbp)
	movl	$5, -416(%rbp)
	movl	$5, -420(%rbp)
	movl	$5, -424(%rbp)
	movl	$5, -428(%rbp)
	movl	$5, -432(%rbp)
	movl	$5, -436(%rbp)
	movl	$5, -440(%rbp)
	movl	$5, -444(%rbp)
	movl	$5, -448(%rbp)
	movl	$5, -452(%rbp)
	movl	$5, -456(%rbp)
	movl	$5, -460(%rbp)
	movl	$5, -464(%rbp)
	movl	$5, -468(%rbp)
	movl	$5, -472(%rbp)
	movl	$5, -476(%rbp)
	movl	$5, -480(%rbp)
	movl	$5, -484(%rbp)
	movl	$5, -488(%rbp)
	movl	$5, -492(%rbp)
	movl	$5, -496(%rbp)
	movl	$5, -500(%rbp)
	movl	$5, -504(%rbp)
	movl	$5, -508(%rbp)
	movl	$5, -512(%rbp)
	movl	$5, -516(%rbp)
	movl	$5, -520(%rbp)
	movl	$5, -524(%rbp)
	movl	$5, -528(%rbp)
	movl	$5, -532(%rbp)
	movl	$5, -536(%rbp)
	movl	$5, -540(%rbp)
	movl	$5, -544(%rbp)
	movl	$5, -548(%rbp)
	movl	$5, -552(%rbp)
	movl	$5, -556(%rbp)
	movl	$5, -560(%rbp)
	movl	$5, -564(%rbp)
	movl	$5, -568(%rbp)
	movl	$5, -572(%rbp)
	movl	$5, -576(%rbp)
	movl	$5, -580(%rbp)
	movl	$5, -584(%rbp)
	movl	$5, -588(%rbp)
	movl	$5, -592(%rbp)
	movl	$5, -596(%rbp)
	movl	$5, -600(%rbp)
	movl	$5, -604(%rbp)
	movl	$5, -608(%rbp)
	movl	$5, -612(%rbp)
	movl	$5, -616(%rbp)
	movl	$5, -620(%rbp)
	movl	$5, -624(%rbp)
	movl	$5, -628(%rbp)
	movl	$5, -632(%rbp)
	movl	$5, -636(%rbp)
	movl	$5, -640(%rbp)
	movl	$5, -644(%rbp)
	movl	$5, -648(%rbp)
	movl	$5, -652(%rbp)
	movl	$5, -656(%rbp)
	movl	$5, -660(%rbp)
	movl	$5, -664(%rbp)
	movl	$5, -668(%rbp)
	movl	$5, -672(%rbp)
	movl	$5, -676(%rbp)
	movl	$5, -680(%rbp)
	movl	$5, -684(%rbp)
	movl	$5, -688(%rbp)
	movl	$5, -692(%rbp)
	movl	$5, -696(%rbp)
	movl	$5, -700(%rbp)
	movl	$5, -704(%rbp)
	movl	$5, -708(%rbp)
	movl	$5, -712(%rbp)
	movl	$5, -716(%rbp)
	movl	$5, -720(%rbp)
	movl	$5, -724(%rbp)
	movl	$5, -728(%rbp)
	movl	$5, -732(%rbp)
	movl	$5, -736(%rbp)
	movl	$5, -740(%rbp)
	movl	$5, -744(%rbp)
	movl	$5, -748(%rbp)
	movl	$5, -752(%rbp)
	movl	$5, -756(%rbp)
	movl	$5, -760(%rbp)
	movl	$5, -764(%rbp)
	movl	$5, -768(%rbp)
	movl	$5, -772(%rbp)
	movl	$5, -776(%rbp)
	movl	$5, -780(%rbp)
	movl	$5, -784(%rbp)
	movl	$5, -788(%rbp)
	movl	$5, -792(%rbp)
	movl	$5, -796(%rbp)
	movl	$5, -800(%rbp)
	movl	$5, -804(%rbp)
	movl	$5, -808(%rbp)
	movl	$5, -812(%rbp)
	movl	$5, -816(%rbp)
	movl	$5, -820(%rbp)
	movl	$5, -824(%rbp)
	movl	$5, -828(%rbp)
	movl	$5, -832(%rbp)
	movl	$5, -836(%rbp)
	movl	$5, -840(%rbp)
	movl	$5, -844(%rbp)
	movl	$5, -848(%rbp)
	movl	$5, -852(%rbp)
	movl	$5, -856(%rbp)
	movl	$5, -860(%rbp)
	movl	$5, -864(%rbp)
	movl	$5, -868(%rbp)
	movl	$5, -872(%rbp)
	movl	$5, -876(%rbp)
	movl	$5, -880(%rbp)
	movl	$5, -884(%rbp)
	movl	$5, -888(%rbp)
	movl	$5, -892(%rbp)
	movl	$5, -896(%rbp)
	movl	$5, -900(%rbp)
	movl	$5, -904(%rbp)
	movl	$5, -908(%rbp)
	movl	$5, -912(%rbp)
	movl	$5, -916(%rbp)
	movl	$5, -920(%rbp)
	movl	$5, -924(%rbp)
	movl	$5, -928(%rbp)
	movl	$5, -932(%rbp)
	movl	$5, -936(%rbp)
	movl	$5, -940(%rbp)
	movl	$5, -944(%rbp)
	movl	$5, -948(%rbp)
	movl	$5, -952(%rbp)
	movl	$5, -956(%rbp)
	movl	$5, -960(%rbp)
	movl	$5, -964(%rbp)
	movl	$5, -968(%rbp)
	movl	$5, -972(%rbp)
	movl	$5, -976(%rbp)
	movl	$5, -980(%rbp)
	movl	$5, -984(%rbp)
	movl	$5, -988(%rbp)
	movl	$5, -992(%rbp)
	movl	$5, -996(%rbp)
	movl	$5, -1000(%rbp)
	movl	$5, -1004(%rbp)
	movl	$5, -1008(%rbp)
	movl	$5, -1012(%rbp)
	movl	$5, -1016(%rbp)
	movl	$5, -1020(%rbp)
	movl	$5, -1024(%rbp)
	movl	$5, -1028(%rbp)
	movl	$5, -1032(%rbp)
	movl	$5, -1036(%rbp)
	movl	$5, -1040(%rbp)
	movl	$5, -1044(%rbp)
	movl	$5, -1048(%rbp)
	movl	$5, -1052(%rbp)
	movl	$5, -1056(%rbp)
	movl	$5, -1060(%rbp)
	movl	$5, -1064(%rbp)
	movl	$5, -1068(%rbp)
	movl	$5, -1072(%rbp)
	movl	$5, -1076(%rbp)
	movl	$5, -1080(%rbp)
	movl	$5, -1084(%rbp)
	movl	$5, -1088(%rbp)
	movl	$5, -1092(%rbp)
	movl	$5, -1096(%rbp)
	movl	$5, -1100(%rbp)
	movl	$5, -1104(%rbp)
	movl	$5, -1108(%rbp)
	movl	$5, -1112(%rbp)
	movl	$5, -1116(%rbp)
	movl	$5, -1120(%rbp)
	movl	$5, -1124(%rbp)
	movl	$5, -1128(%rbp)
	movl	$5, -1132(%rbp)
	movl	$5, -1136(%rbp)
	movl	$5, -1140(%rbp)
	movl	$5, -1144(%rbp)
	movl	$5, -1148(%rbp)
	movl	$5, -1152(%rbp)
	movl	$5, -1156(%rbp)
	movl	$5, -1160(%rbp)
	movl	$5, -1164(%rbp)
	movl	$5, -1168(%rbp)
	movl	$5, -1172(%rbp)
	movl	$5, -1176(%rbp)
	movl	$5, -1180(%rbp)
	movl	$5, -1184(%rbp)
	movl	$5, -1188(%rbp)
	movl	$5, -1192(%rbp)
	movl	$5, -1196(%rbp)
	movl	$5, -1200(%rbp)
	movl	$5, -1204(%rbp)
	movl	$5, -1208(%rbp)
	movl	$5, -1212(%rbp)
	movl	$5, -1216(%rbp)
	movl	$5, -1220(%rbp)
	movl	$5, -1224(%rbp)
	movl	$5, -1228(%rbp)
	movl	$5, -1232(%rbp)
	movl	$5, -1236(%rbp)
	movl	$5, -1240(%rbp)
	movl	$5, -1244(%rbp)
	movl	$5, -1248(%rbp)
	movl	$5, -1252(%rbp)
	movl	$5, -1256(%rbp)
	movl	$5, -1260(%rbp)
	movl	$5, -1264(%rbp)
	movl	$5, -1268(%rbp)
	movl	$5, -1272(%rbp)
	movl	$5, -1276(%rbp)
	movl	$5, -1280(%rbp)
	movl	$5, -1284(%rbp)
	movl	$5, -1288(%rbp)
	movl	$5, -1292(%rbp)
	movl	$5, -1296(%rbp)
	movl	$5, -1300(%rbp)
	movl	$5, -1304(%rbp)
	movl	$5, -1308(%rbp)
	movl	$5, -1312(%rbp)
	movl	$5, -1316(%rbp)
	movl	$5, -1320(%rbp)
	movl	$5, -1324(%rbp)
	movl	$5, -1328(%rbp)
	movl	$5, -1332(%rbp)
	movl	$5, -1336(%rbp)
	movl	$5, -1340(%rbp)
	movl	$5, -1344(%rbp)
	movl	$5, -1348(%rbp)
	movl	$5, -1352(%rbp)
	movl	$5, -1356(%rbp)
	movl	$5, -1360(%rbp)
	movl	$5, -1364(%rbp)
	movl	$5, -1368(%rbp)
	movl	$5, -1372(%rbp)
	movl	$5, -1376(%rbp)
	movl	$5, -1380(%rbp)
	movl	$5, -1384(%rbp)
	movl	$5, -1388(%rbp)
	movl	$5, -1392(%rbp)
	movl	$5, -1396(%rbp)
	movl	$5, -1400(%rbp)
	movl	$5, -1404(%rbp)
	movl	$5, -1408(%rbp)
	movl	$5, -1412(%rbp)
	movl	$5, -1416(%rbp)
	movl	$5, -1420(%rbp)
	movl	$5, -1424(%rbp)
	movl	$5, -1428(%rbp)
	movl	$5, -1432(%rbp)
	movl	$5, -1436(%rbp)
	movl	$5, -1440(%rbp)
	movl	$5, -1444(%rbp)
	movl	$5, -1448(%rbp)
	movl	$5, -1452(%rbp)
	movl	$5, -1456(%rbp)
	movl	$5, -1460(%rbp)
	movl	$5, -1464(%rbp)
	movl	$5, -1468(%rbp)
	movl	$5, -1472(%rbp)
	movl	$5, -1476(%rbp)
	movl	$5, -1480(%rbp)
	movl	$5, -1484(%rbp)
	movl	$5, -1488(%rbp)
	movl	$5, -1492(%rbp)
	movl	$5, -1496(%rbp)
	movl	$5, -1500(%rbp)
	movl	$5, -1504(%rbp)
	movl	$5, -1508(%rbp)
	movl	$5, -1512(%rbp)
	movl	$5, -1516(%rbp)
	movl	$5, -1520(%rbp)
	movl	$5, -1524(%rbp)
	movl	$5, -1528(%rbp)
	movl	$5, -1532(%rbp)
	movl	$5, -1536(%rbp)
	movl	$5, -1540(%rbp)
	movl	$5, -1544(%rbp)
	movl	$5, -1548(%rbp)
	movl	$5, -1552(%rbp)
	movl	$5, -1556(%rbp)
	movl	$5, -1560(%rbp)
	movl	$5, -1564(%rbp)
	movl	$5, -1568(%rbp)
	movl	$5, -1572(%rbp)
	movl	$5, -1576(%rbp)
	movl	$5, -1580(%rbp)
	movl	$5, -1584(%rbp)
	movl	$5, -1588(%rbp)
	movl	$5, -1592(%rbp)
	movl	$5, -1596(%rbp)
	movl	$5, -1600(%rbp)
	movl	$5, -1604(%rbp)
	movl	$5, -1608(%rbp)
	movl	$5, -1612(%rbp)
	movl	$5, -1616(%rbp)
	movl	$5, -1620(%rbp)
	movl	$5, -1624(%rbp)
	movl	$5, -1628(%rbp)
	movl	$5, -1632(%rbp)
	movl	$5, -1636(%rbp)
	movl	$5, -1640(%rbp)
	movl	$5, -1644(%rbp)
	movl	$5, -1648(%rbp)
	movl	$5, -1652(%rbp)
	movl	$5, -1656(%rbp)
	movl	$5, -1660(%rbp)
	movl	$5, -1664(%rbp)
	movl	$5, -1668(%rbp)
	movl	$5, -1672(%rbp)
	movl	$5, -1676(%rbp)
	movl	$5, -1680(%rbp)
	movl	$5, -1684(%rbp)
	movl	$5, -1688(%rbp)
	movl	$5, -1692(%rbp)
	movl	$5, -1696(%rbp)
	movl	$5, -1700(%rbp)
	movl	$5, -1704(%rbp)
	movl	$5, -1708(%rbp)
	movl	$5, -1712(%rbp)
	movl	$5, -1716(%rbp)
	movl	$5, -1720(%rbp)
	movl	$5, -1724(%rbp)
	movl	$5, -1728(%rbp)
	movl	$5, -1732(%rbp)
	movl	$5, -1736(%rbp)
	movl	$5, -1740(%rbp)
	movl	$5, -1744(%rbp)
	movl	$5, -1748(%rbp)
	movl	$5, -1752(%rbp)
	movl	$5, -1756(%rbp)
	movl	$5, -1760(%rbp)
	movl	$5, -1764(%rbp)
	movl	$5, -1768(%rbp)
	movl	$5, -1772(%rbp)
	movl	$5, -1776(%rbp)
	movl	$5, -1780(%rbp)
	movl	$5, -1784(%rbp)
	movl	$5, -1788(%rbp)
	movl	$5, -1792(%rbp)
	movl	$5, -1796(%rbp)
	movl	$5, -1800(%rbp)
	movl	$5, -1804(%rbp)
	movl	$5, -1808(%rbp)
	movl	$5, -1812(%rbp)
	movl	$5, -1816(%rbp)
	movl	$5, -1820(%rbp)
	movl	$5, -1824(%rbp)
	movl	$5, -1828(%rbp)
	movl	$5, -1832(%rbp)
	movl	$5, -1836(%rbp)
	movl	$5, -1840(%rbp)
	movl	$5, -1844(%rbp)
	movl	$5, -1848(%rbp)
	movl	$5, -1852(%rbp)
	movl	$5, -1856(%rbp)
	movl	$5, -1860(%rbp)
	movl	$5, -1864(%rbp)
	movl	$5, -1868(%rbp)
	movl	$5, -1872(%rbp)
	movl	$5, -1876(%rbp)
	movl	$5, -1880(%rbp)
	movl	$5, -1884(%rbp)
	movl	$5, -1888(%rbp)
	movl	$5, -1892(%rbp)
	movl	$5, -1896(%rbp)
	movl	$5, -1900(%rbp)
	movl	$5, -1904(%rbp)
	movl	$5, -1908(%rbp)
	movl	$5, -1912(%rbp)
	movl	$5, -1916(%rbp)
	movl	$5, -1920(%rbp)
	movl	$5, -1924(%rbp)
	movl	$5, -1928(%rbp)
	movl	$5, -1932(%rbp)
	movl	$5, -1936(%rbp)
	movl	$5, -1940(%rbp)
	movl	$5, -1944(%rbp)
	movl	$5, -1948(%rbp)
	movl	$5, -1952(%rbp)
	movl	$5, -1956(%rbp)
	movl	$5, -1960(%rbp)
	movl	$5, -1964(%rbp)
	movl	$5, -1968(%rbp)
	movl	$5, -1972(%rbp)
	movl	$5, -1976(%rbp)
	movl	$5, -1980(%rbp)
	movl	$5, -1984(%rbp)
	movl	$5, -1988(%rbp)
	movl	$5, -1992(%rbp)
	movl	$5, -1996(%rbp)
	movl	$5, -2000(%rbp)
	movl	$5, -2004(%rbp)
	movl	$5, -2008(%rbp)
	movl	$5, -2012(%rbp)
	movl	$5, -2016(%rbp)
	movl	$5, -2020(%rbp)
	movl	$5, -2024(%rbp)
	movl	$5, -2028(%rbp)
	movl	$5, -2032(%rbp)
	movl	$5, -2036(%rbp)
	movl	$5, -2040(%rbp)
	movl	$5, -2044(%rbp)
	movl	$5, -2048(%rbp)
	movl	$5, -2052(%rbp)
	movl	$5, -2056(%rbp)
	movl	$5, -2060(%rbp)
	movl	$5, -2064(%rbp)
	movl	$5, -2068(%rbp)
	movl	$5, -2072(%rbp)
	movl	$5, -2076(%rbp)
	movl	$5, -2080(%rbp)
	movl	$5, -2084(%rbp)
	movl	$5, -2088(%rbp)
	movl	$5, -2092(%rbp)
	movl	$5, -2096(%rbp)
	movl	$5, -2100(%rbp)
	movl	$5, -2104(%rbp)
	movl	$5, -2108(%rbp)
	movl	$5, -2112(%rbp)
	movl	$5, -2116(%rbp)
	movl	$5, -2120(%rbp)
	movl	$5, -2124(%rbp)
	movl	$5, -2128(%rbp)
	movl	$5, -2132(%rbp)
	movl	$5, -2136(%rbp)
	movl	$5, -2140(%rbp)
	movl	$5, -2144(%rbp)
	movl	$5, -2148(%rbp)
	movl	$5, -2152(%rbp)
	movl	$5, -2156(%rbp)
	movl	$5, -2160(%rbp)
	movl	$5, -2164(%rbp)
	movl	$5, -2168(%rbp)
	movl	$5, -2172(%rbp)
	movl	$5, -2176(%rbp)
	movl	$5, -2180(%rbp)
	movl	$5, -2184(%rbp)
	movl	$5, -2188(%rbp)
	movl	$5, -2192(%rbp)
	movl	$5, -2196(%rbp)
	movl	$5, -2200(%rbp)
	movl	$5, -2204(%rbp)
	movl	$5, -2208(%rbp)
	movl	$5, -2212(%rbp)
	movl	$5, -2216(%rbp)
	movl	$5, -2220(%rbp)
	movl	$5, -2224(%rbp)
	movl	$5, -2228(%rbp)
	movl	$5, -2232(%rbp)
	movl	$5, -2236(%rbp)
	movl	$5, -2240(%rbp)
	movl	$5, -2244(%rbp)
	movl	$5, -2248(%rbp)
	movl	$5, -2252(%rbp)
	movl	$5, -2256(%rbp)
	movl	$5, -2260(%rbp)
	movl	$5, -2264(%rbp)
	movl	$5, -2268(%rbp)
	movl	$5, -2272(%rbp)
	movl	$5, -2276(%rbp)
	movl	$5, -2280(%rbp)
	movl	$5, -2284(%rbp)
	movl	$5, -2288(%rbp)
	movl	$5, -2292(%rbp)
	movl	$5, -2296(%rbp)
	movl	$5, -2300(%rbp)
	movl	$5, -2304(%rbp)
	movl	$5, -2308(%rbp)
	movl	$5, -2312(%rbp)
	movl	$5, -2316(%rbp)
	movl	$5, -2320(%rbp)
	movl	$5, -2324(%rbp)
	movl	$5, -2328(%rbp)
	movl	$5, -2332(%rbp)
	movl	$5, -2336(%rbp)
	movl	$5, -2340(%rbp)
	movl	$5, -2344(%rbp)
	movl	$5, -2348(%rbp)
	movl	$5, -2352(%rbp)
	movl	$5, -2356(%rbp)
	movl	$5, -2360(%rbp)
	movl	$5, -2364(%rbp)
	movl	$5, -2368(%rbp)
	movl	$5, -2372(%rbp)
	movl	$5, -2376(%rbp)
	movl	$5, -2380(%rbp)
	movl	$5, -2384(%rbp)
	movl	$5, -2388(%rbp)
	movl	$5, -2392(%rbp)
	movl	$5, -2396(%rbp)
	movl	$5, -2400(%rbp)
	movl	$5, -2404(%rbp)
	movl	$5, -2408(%rbp)
	movl	$5, -2412(%rbp)
	movl	$5, -2416(%rbp)
	movl	$5, -2420(%rbp)
	movl	$5, -2424(%rbp)
	movl	$5, -2428(%rbp)
	movl	$5, -2432(%rbp)
	movl	$5, -2436(%rbp)
	movl	$5, -2440(%rbp)
	movl	$5, -2444(%rbp)
	movl	$5, -2448(%rbp)
	movl	$5, -2452(%rbp)
	movl	$5, -2456(%rbp)
	movl	$5, -2460(%rbp)
	movl	$5, -2464(%rbp)
	movl	$5, -2468(%rbp)
	movl	$5, -2472(%rbp)
	movl	$5, -2476(%rbp)
	movl	$5, -2480(%rbp)
	movl	$5, -2484(%rbp)
	movl	$5, -2488(%rbp)
	movl	$5, -2492(%rbp)
	movl	$5, -2496(%rbp)
	movl	$5, -2500(%rbp)
	movl	$5, -2504(%rbp)
	movl	$5, -2508(%rbp)
	movl	$5, -2512(%rbp)
	movl	$5, -2516(%rbp)
	movl	$5, -2520(%rbp)
	movl	$5, -2524(%rbp)
	movl	$5, -2528(%rbp)
	movl	$5, -2532(%rbp)
	movl	$5, -2536(%rbp)
	movl	$5, -2540(%rbp)
	movl	$5, -2544(%rbp)
	movl	$5, -2548(%rbp)
	movl	$5, -2552(%rbp)
	movl	$5, -2556(%rbp)
	movl	$5, -2560(%rbp)
	movl	$5, -2564(%rbp)
	movl	$5, -2568(%rbp)
	movl	$5, -2572(%rbp)
	movl	$5, -2576(%rbp)
	movl	$5, -2580(%rbp)
	movl	$5, -2584(%rbp)
	movl	$5, -2588(%rbp)
	movl	$5, -2592(%rbp)
	movl	$5, -2596(%rbp)
	movl	$5, -2600(%rbp)
	movl	$5, -2604(%rbp)
	movl	$5, -2608(%rbp)
	movl	$5, -2612(%rbp)
	movl	$5, -2616(%rbp)
	movl	$5, -2620(%rbp)
	movl	$5, -2624(%rbp)
	movl	$5, -2628(%rbp)
	movl	$5, -2632(%rbp)
	movl	$5, -2636(%rbp)
	movl	$5, -2640(%rbp)
	movl	$5, -2644(%rbp)
	movl	$5, -2648(%rbp)
	movl	$5, -2652(%rbp)
	movl	$5, -2656(%rbp)
	movl	$5, -2660(%rbp)
	movl	$5, -2664(%rbp)
	movl	$5, -2668(%rbp)
	movl	$5, -2672(%rbp)
	movl	$5, -2676(%rbp)
	movl	$5, -2680(%rbp)
	movl	$5, -2684(%rbp)
	movl	$5, -2688(%rbp)
	movl	$5, -2692(%rbp)
	movl	$5, -2696(%rbp)
	movl	$5, -2700(%rbp)
	movl	$5, -2704(%rbp)
	movl	$5, -2708(%rbp)
	movl	$5, -2712(%rbp)
	movl	$5, -2716(%rbp)
	movl	$5, -2720(%rbp)
	movl	$5, -2724(%rbp)
	movl	$5, -2728(%rbp)
	movl	$5, -2732(%rbp)
	movl	$5, -2736(%rbp)
	movl	$5, -2740(%rbp)
	movl	$5, -2744(%rbp)
	movl	$5, -2748(%rbp)
	movl	$5, -2752(%rbp)
	movl	$5, -2756(%rbp)
	movl	$5, -2760(%rbp)
	movl	$5, -2764(%rbp)
	movl	$5, -2768(%rbp)
	movl	$5, -2772(%rbp)
	movl	$5, -2776(%rbp)
	movl	$5, -2780(%rbp)
	movl	$5, -2784(%rbp)
	movl	$5, -2788(%rbp)
	movl	$5, -2792(%rbp)
	movl	$5, -2796(%rbp)
	movl	$5, -2800(%rbp)
	movl	$5, -2804(%rbp)
	movl	$5, -2808(%rbp)
	movl	$5, -2812(%rbp)
	movl	$5, -2816(%rbp)
	movl	$5, -2820(%rbp)
	movl	$5, -2824(%rbp)
	movl	$5, -2828(%rbp)
	movl	$5, -2832(%rbp)
	movl	$5, -2836(%rbp)
	movl	$5, -2840(%rbp)
	movl	$5, -2844(%rbp)
	movl	$5, -2848(%rbp)
	movl	$5, -2852(%rbp)
	movl	$5, -2856(%rbp)
	movl	$5, -2860(%rbp)
	movl	$5, -2864(%rbp)
	movl	$5, -2868(%rbp)
	movl	$5, -2872(%rbp)
	movl	$5, -2876(%rbp)
	movl	$5, -2880(%rbp)
	movl	$5, -2884(%rbp)
	movl	$5, -2888(%rbp)
	movl	$5, -2892(%rbp)
	movl	$5, -2896(%rbp)
	movl	$5, -2900(%rbp)
	movl	$5, -2904(%rbp)
	movl	$5, -2908(%rbp)
	movl	$5, -2912(%rbp)
	movl	$5, -2916(%rbp)
	movl	$5, -2920(%rbp)
	movl	$5, -2924(%rbp)
	movl	$5, -2928(%rbp)
	movl	$5, -2932(%rbp)
	movl	$5, -2936(%rbp)
	movl	$5, -2940(%rbp)
	movl	$5, -2944(%rbp)
	movl	$5, -2948(%rbp)
	movl	$5, -2952(%rbp)
	movl	$5, -2956(%rbp)
	movl	$5, -2960(%rbp)
	movl	$5, -2964(%rbp)
	movl	$5, -2968(%rbp)
	movl	$5, -2972(%rbp)
	movl	$5, -2976(%rbp)
	movl	$5, -2980(%rbp)
	movl	$5, -2984(%rbp)
	movl	$5, -2988(%rbp)
	movl	$5, -2992(%rbp)
	movl	$5, -2996(%rbp)
	movl	$5, -3000(%rbp)
	movl	$5, -3004(%rbp)
	movl	$5, -3008(%rbp)
	movl	$5, -3012(%rbp)
	movl	$5, -3016(%rbp)
	movl	$5, -3020(%rbp)
	movl	$5, -3024(%rbp)
	movl	$5, -3028(%rbp)
	movl	$5, -3032(%rbp)
	movl	$5, -3036(%rbp)
	movl	$5, -3040(%rbp)
	movl	$5, -3044(%rbp)
	movl	$5, -3048(%rbp)
	movl	$5, -3052(%rbp)
	movl	$5, -3056(%rbp)
	movl	$5, -3060(%rbp)
	movl	$5, -3064(%rbp)
	movl	$5, -3068(%rbp)
	movl	$5, -3072(%rbp)
	movl	$5, -3076(%rbp)
	movl	$5, -3080(%rbp)
	movl	$5, -3084(%rbp)
	movl	$5, -3088(%rbp)
	movl	$5, -3092(%rbp)
	movl	$5, -3096(%rbp)
	movl	$5, -3100(%rbp)
	movl	$5, -3104(%rbp)
	movl	$5, -3108(%rbp)
	movl	$5, -3112(%rbp)
	movl	$5, -3116(%rbp)
	movl	$5, -3120(%rbp)
	movl	$5, -3124(%rbp)
	movl	$5, -3128(%rbp)
	movl	$5, -3132(%rbp)
	movl	$5, -3136(%rbp)
	movl	$5, -3140(%rbp)
	movl	$5, -3144(%rbp)
	movl	$5, -3148(%rbp)
	movl	$5, -3152(%rbp)
	movl	$5, -3156(%rbp)
	movl	$5, -3160(%rbp)
	movl	$5, -3164(%rbp)
	movl	$5, -3168(%rbp)
	movl	$5, -3172(%rbp)
	movl	$5, -3176(%rbp)
	movl	$5, -3180(%rbp)
	movl	$5, -3184(%rbp)
	movl	$5, -3188(%rbp)
	movl	$5, -3192(%rbp)
	movl	$5, -3196(%rbp)
	movl	$5, -3200(%rbp)
	movl	$5, -3204(%rbp)
	movl	$5, -3208(%rbp)
	movl	$5, -3212(%rbp)
	movl	$5, -3216(%rbp)
	movl	$5, -3220(%rbp)
	movl	$5, -3224(%rbp)
	movl	$5, -3228(%rbp)
	movl	$5, -3232(%rbp)
	movl	$5, -3236(%rbp)
	movl	$5, -3240(%rbp)
	movl	$5, -3244(%rbp)
	movl	$5, -3248(%rbp)
	movl	$5, -3252(%rbp)
	movl	$5, -3256(%rbp)
	movl	$5, -3260(%rbp)
	movl	$5, -3264(%rbp)
	movl	$5, -3268(%rbp)
	movl	$5, -3272(%rbp)
	movl	$5, -3276(%rbp)
	movl	$5, -3280(%rbp)
	movl	$5, -3284(%rbp)
	movl	$5, -3288(%rbp)
	movl	$5, -3292(%rbp)
	movl	$5, -3296(%rbp)
	movl	$5, -3300(%rbp)
	movl	$5, -3304(%rbp)
	movl	$5, -3308(%rbp)
	movl	$5, -3312(%rbp)
	movl	$5, -3316(%rbp)
	movl	$5, -3320(%rbp)
	movl	$5, -3324(%rbp)
	movl	$5, -3328(%rbp)
	movl	$5, -3332(%rbp)
	movl	$5, -3336(%rbp)
	movl	$5, -3340(%rbp)
	movl	$5, -3344(%rbp)
	movl	$5, -3348(%rbp)
	movl	$5, -3352(%rbp)
	movl	$5, -3356(%rbp)
	movl	$5, -3360(%rbp)
	movl	$5, -3364(%rbp)
	movl	$5, -3368(%rbp)
	movl	$5, -3372(%rbp)
	movl	$5, -3376(%rbp)
	movl	$5, -3380(%rbp)
	movl	$5, -3384(%rbp)
	movl	$5, -3388(%rbp)
	movl	$5, -3392(%rbp)
	movl	$5, -3396(%rbp)
	movl	$5, -3400(%rbp)
	movl	$5, -3404(%rbp)
	movl	$5, -3408(%rbp)
	movl	$5, -3412(%rbp)
	movl	$5, -3416(%rbp)
	movl	$5, -3420(%rbp)
	movl	$5, -3424(%rbp)
	movl	$5, -3428(%rbp)
	movl	$5, -3432(%rbp)
	movl	$5, -3436(%rbp)
	movl	$5, -3440(%rbp)
	movl	$5, -3444(%rbp)
	movl	$5, -3448(%rbp)
	movl	$5, -3452(%rbp)
	movl	$5, -3456(%rbp)
	movl	$5, -3460(%rbp)
	movl	$5, -3464(%rbp)
	movl	$5, -3468(%rbp)
	movl	$5, -3472(%rbp)
	movl	$5, -3476(%rbp)
	movl	$5, -3480(%rbp)
	movl	$5, -3484(%rbp)
	movl	$5, -3488(%rbp)
	movl	$5, -3492(%rbp)
	movl	$5, -3496(%rbp)
	movl	$5, -3500(%rbp)
	movl	$5, -3504(%rbp)
	movl	$5, -3508(%rbp)
	movl	$5, -3512(%rbp)
	movl	$5, -3516(%rbp)
	movl	$5, -3520(%rbp)
	movl	$5, -3524(%rbp)
	movl	$5, -3528(%rbp)
	movl	$5, -3532(%rbp)
	movl	$5, -3536(%rbp)
	movl	$5, -3540(%rbp)
	movl	$5, -3544(%rbp)
	movl	$5, -3548(%rbp)
	movl	$5, -3552(%rbp)
	movl	$5, -3556(%rbp)
	movl	$5, -3560(%rbp)
	movl	$5, -3564(%rbp)
	movl	$5, -3568(%rbp)
	movl	$5, -3572(%rbp)
	movl	$5, -3576(%rbp)
	movl	$5, -3580(%rbp)
	movl	$5, -3584(%rbp)
	movl	$5, -3588(%rbp)
	movl	$5, -3592(%rbp)
	movl	$5, -3596(%rbp)
	movl	$5, -3600(%rbp)
	movl	$5, -3604(%rbp)
	movl	$5, -3608(%rbp)
	movl	$5, -3612(%rbp)
	movl	$5, -3616(%rbp)
	movl	$5, -3620(%rbp)
	movl	$5, -3624(%rbp)
	movl	$5, -3628(%rbp)
	movl	$5, -3632(%rbp)
	movl	$5, -3636(%rbp)
	movl	$5, -3640(%rbp)
	movl	$5, -3644(%rbp)
	movl	$5, -3648(%rbp)
	movl	$5, -3652(%rbp)
	movl	$5, -3656(%rbp)
	movl	$5, -3660(%rbp)
	movl	$5, -3664(%rbp)
	movl	$5, -3668(%rbp)
	movl	$5, -3672(%rbp)
	movl	$5, -3676(%rbp)
	movl	$5, -3680(%rbp)
	movl	$5, -3684(%rbp)
	movl	$5, -3688(%rbp)
	movl	$5, -3692(%rbp)
	movl	$5, -3696(%rbp)
	movl	$5, -3700(%rbp)
	movl	$5, -3704(%rbp)
	movl	$5, -3708(%rbp)
	movl	$5, -3712(%rbp)
	movl	$5, -3716(%rbp)
	movl	$5, -3720(%rbp)
	movl	$5, -3724(%rbp)
	movl	$5, -3728(%rbp)
	movl	$5, -3732(%rbp)
	movl	$5, -3736(%rbp)
	movl	$5, -3740(%rbp)
	movl	$5, -3744(%rbp)
	movl	$5, -3748(%rbp)
	movl	$5, -3752(%rbp)
	movl	$5, -3756(%rbp)
	movl	$5, -3760(%rbp)
	movl	$5, -3764(%rbp)
	movl	$5, -3768(%rbp)
	movl	$5, -3772(%rbp)
	movl	$5, -3776(%rbp)
	movl	$5, -3780(%rbp)
	movl	$5, -3784(%rbp)
	movl	$5, -3788(%rbp)
	movl	$5, -3792(%rbp)
	movl	$5, -3796(%rbp)
	movl	$5, -3800(%rbp)
	movl	$5, -3804(%rbp)
	movl	$5, -3808(%rbp)
	movl	$5, -3812(%rbp)
	movl	$5, -3816(%rbp)
	movl	$5, -3820(%rbp)
	movl	$5, -3824(%rbp)
	movl	$5, -3828(%rbp)
	movl	$5, -3832(%rbp)
	movl	$5, -3836(%rbp)
	movl	$5, -3840(%rbp)
	movl	$5, -3844(%rbp)
	movl	$5, -3848(%rbp)
	movl	$5, -3852(%rbp)
	movl	$5, -3856(%rbp)
	movl	$5, -3860(%rbp)
	movl	$5, -3864(%rbp)
	movl	$5, -3868(%rbp)
	movl	$5, -3872(%rbp)
	movl	$5, -3876(%rbp)
	movl	$5, -3880(%rbp)
	movl	$5, -3884(%rbp)
	movl	$5, -3888(%rbp)
	movl	$5, -3892(%rbp)
	movl	$5, -3896(%rbp)
	movl	$5, -3900(%rbp)
	movl	$5, -3904(%rbp)
	movl	$5, -3908(%rbp)
	movl	$5, -3912(%rbp)
	movl	$5, -3916(%rbp)
	movl	$5, -3920(%rbp)
	movl	$5, -3924(%rbp)
	movl	$5, -3928(%rbp)
	movl	$5, -3932(%rbp)
	movl	$5, -3936(%rbp)
	movl	$5, -3940(%rbp)
	movl	$5, -3944(%rbp)
	movl	$5, -3948(%rbp)
	movl	$5, -3952(%rbp)
	movl	$5, -3956(%rbp)
	movl	$5, -3960(%rbp)
	movl	$5, -3964(%rbp)
	movl	$5, -3968(%rbp)
	movl	$5, -3972(%rbp)
	movl	$5, -3976(%rbp)
	movl	$5, -3980(%rbp)
	movl	$5, -3984(%rbp)
	movl	$5, -3988(%rbp)
	movl	$5, -3992(%rbp)
	movl	$5, -3996(%rbp)
	movl	$5, -4000(%rbp)
	movl	$5, -4004(%rbp)
	movl	$5, -4008(%rbp)
	movl	$5, -4012(%rbp)
	movl	$5, -4016(%rbp)
	movl	$5, -4020(%rbp)
	movl	$5, -4024(%rbp)
	movl	$5, -4028(%rbp)
	movl	$5, -4032(%rbp)
	movl	$5, -4036(%rbp)
	movl	$5, -4040(%rbp)
	movl	$5, -4044(%rbp)
	movl	$5, -4048(%rbp)
	movl	$5, -4052(%rbp)
	movl	$5, -4056(%rbp)
	movl	$5, -4060(%rbp)
	movl	$5, -4064(%rbp)
	movl	$5, -4068(%rbp)
	movl	$5, -4072(%rbp)
	movl	$5, -4076(%rbp)
	movl	$5, -4080(%rbp)
	movl	$5, -4084(%rbp)
	movl	$5, -4088(%rbp)
	movl	$5, -4092(%rbp)
	movl	$5, -4096(%rbp)
	movl	$5, -4100(%rbp)
	movl	$5, -4104(%rbp)
	movl	$5, -4108(%rbp)
	movl	$5, -4112(%rbp)
	movl	$5, -4116(%rbp)
	movl	$5, -4120(%rbp)
	movl	$5, -4124(%rbp)
	movl	$5, -4128(%rbp)
	movl	$5, -4132(%rbp)
	movl	$5, -4136(%rbp)
	movl	$5, -4140(%rbp)
	movl	$5, -4144(%rbp)
	movl	$5, -4148(%rbp)
	movl	$5, -4152(%rbp)
	movl	$5, -4156(%rbp)
	movl	$5, -4160(%rbp)
	movl	$5, -4164(%rbp)
	movl	$5, -4168(%rbp)
	movl	$5, -4172(%rbp)
	movl	$5, -4176(%rbp)
	movl	$5, -4180(%rbp)
	movl	$5, -4184(%rbp)
	movl	$5, -4188(%rbp)
	movl	$5, -4192(%rbp)
	movl	$5, -4196(%rbp)
	movl	$5, -4200(%rbp)
	movl	$5, -4204(%rbp)
	movl	$5, -4208(%rbp)
	movl	$5, -4212(%rbp)
	movl	$5, -4216(%rbp)
	movl	$5, -4220(%rbp)
	movl	$5, -4224(%rbp)
	movl	$5, -4228(%rbp)
	movl	$5, -4232(%rbp)
	movl	$5, -4236(%rbp)
	movl	$5, -4240(%rbp)
	movl	$5, -4244(%rbp)
	movl	$5, -4248(%rbp)
	movl	$5, -4252(%rbp)
	movl	$5, -4256(%rbp)
	movl	$5, -4260(%rbp)
	movl	$5, -4264(%rbp)
	movl	$5, -4268(%rbp)
	movl	$5, -4272(%rbp)
	movl	$5, -4276(%rbp)
	movl	$5, -4280(%rbp)
	movl	$5, -4284(%rbp)
	movl	$5, -4288(%rbp)
	movl	$5, -4292(%rbp)
	movl	$5, -4296(%rbp)
	movl	$5, -4300(%rbp)
	movl	$5, -4304(%rbp)
	movl	$5, -4308(%rbp)
	movl	$5, -4312(%rbp)
	movl	$5, -4316(%rbp)
	movl	$5, -4320(%rbp)
	movl	$5, -4324(%rbp)
	movl	$5, -4328(%rbp)
	movl	$5, -4332(%rbp)
	movl	$5, -4336(%rbp)
	movl	$5, -4340(%rbp)
	movl	$5, -4344(%rbp)
	movl	$5, -4348(%rbp)
	movl	$5, -4352(%rbp)
	movl	$5, -4356(%rbp)
	movl	$5, -4360(%rbp)
	movl	$5, -4364(%rbp)
	movl	$5, -4368(%rbp)
	movl	$5, -4372(%rbp)
	movl	$5, -4376(%rbp)
	movl	$5, -4380(%rbp)
	movl	$5, -4384(%rbp)
	movl	$5, -4388(%rbp)
	movl	$5, -4392(%rbp)
	movl	$5, -4396(%rbp)
	movl	$5, -4400(%rbp)
	movl	$5, -4404(%rbp)
	movl	$5, -4408(%rbp)
	movl	$5, -4412(%rbp)
	movl	$5, -4416(%rbp)
	movl	$5, -4420(%rbp)
	movl	$5, -4424(%rbp)
	movl	$5, -4428(%rbp)
	movl	$5, -4432(%rbp)
	movl	$5, -4436(%rbp)
	movl	$5, -4440(%rbp)
	movl	$5, -4444(%rbp)
	movl	$5, -4448(%rbp)
	movl	$5, -4452(%rbp)
	movl	$5, -4456(%rbp)
	movl	$5, -4460(%rbp)
	movl	$5, -4464(%rbp)
	movl	$5, -4468(%rbp)
	movl	$5, -4472(%rbp)
	movl	$5, -4476(%rbp)
	movl	$5, -4480(%rbp)
	movl	$5, -4484(%rbp)
	movl	$5, -4488(%rbp)
	movl	$5, -4492(%rbp)
	movl	$5, -4496(%rbp)
	movl	$5, -4500(%rbp)
	movl	$5, -4504(%rbp)
	movl	$5, -4508(%rbp)
	movl	$5, -4512(%rbp)
	movl	$5, -4516(%rbp)
	movl	$5, -4520(%rbp)
	movl	$5, -4524(%rbp)
	movl	$5, -4528(%rbp)
	movl	$5, -4532(%rbp)
	movl	$5, -4536(%rbp)
	movl	$5, -4540(%rbp)
	movl	$5, -4544(%rbp)
	movl	$5, -4548(%rbp)
	movl	$5, -4552(%rbp)
	movl	$5, -4556(%rbp)
	movl	$5, -4560(%rbp)
	movl	$5, -4564(%rbp)
	movl	$5, -4568(%rbp)
	movl	$5, -4572(%rbp)
	movl	$5, -4576(%rbp)
	movl	$5, -4580(%rbp)
	movl	$5, -4584(%rbp)
	movl	$5, -4588(%rbp)
	movl	$5, -4592(%rbp)
	movl	$5, -4596(%rbp)
	movl	$5, -4600(%rbp)
	movl	$5, -4604(%rbp)
	movl	$5, -4608(%rbp)
	movl	$5, -4612(%rbp)
	movl	$5, -4616(%rbp)
	movl	$5, -4620(%rbp)
	movl	$5, -4624(%rbp)
	movl	$5, -4628(%rbp)
	movl	$5, -4632(%rbp)
	movl	$5, -4636(%rbp)
	movl	$5, -4640(%rbp)
	movl	$5, -4644(%rbp)
	movl	$5, -4648(%rbp)
	movl	$5, -4652(%rbp)
	movl	$5, -4656(%rbp)
	movl	$5, -4660(%rbp)
	movl	$5, -4664(%rbp)
	movl	$5, -4668(%rbp)
	movl	$5, -4672(%rbp)
	movl	$5, -4676(%rbp)
	movl	$5, -4680(%rbp)
	movl	$5, -4684(%rbp)
	movl	$5, -4688(%rbp)
	movl	$5, -4692(%rbp)
	movl	$5, -4696(%rbp)
	movl	$5, -4700(%rbp)
	movl	$5, -4704(%rbp)
	movl	$5, -4708(%rbp)
	movl	$5, -4712(%rbp)
	movl	$5, -4716(%rbp)
	movl	$5, -4720(%rbp)
	movl	$5, -4724(%rbp)
	movl	$5, -4728(%rbp)
	movl	$5, -4732(%rbp)
	movl	$5, -4736(%rbp)
	movl	$5, -4740(%rbp)
	movl	$5, -4744(%rbp)
	movl	$5, -4748(%rbp)
	movl	$5, -4752(%rbp)
	movl	$5, -4756(%rbp)
	movl	$5, -4760(%rbp)
	movl	$5, -4764(%rbp)
	movl	$5, -4768(%rbp)
	movl	$5, -4772(%rbp)
	movl	$5, -4776(%rbp)
	movl	$5, -4780(%rbp)
	movl	$5, -4784(%rbp)
	movl	$5, -4788(%rbp)
	movl	$5, -4792(%rbp)
	movl	$5, -4796(%rbp)
	movl	$5, -4800(%rbp)
	movl	$5, -4804(%rbp)
	movl	$5, -4808(%rbp)
	movl	$5, -4812(%rbp)
	movl	$5, -4816(%rbp)
	movl	$5, -4820(%rbp)
	movl	$5, -4824(%rbp)
	movl	$5, -4828(%rbp)
	movl	$5, -4832(%rbp)
	movl	$5, -4836(%rbp)
	movl	$5, -4840(%rbp)
	movl	$5, -4844(%rbp)
	movl	$5, -4848(%rbp)
	movl	$5, -4852(%rbp)
	movl	$5, -4856(%rbp)
	movl	$5, -4860(%rbp)
	movl	$5, -4864(%rbp)
	movl	$5, -4868(%rbp)
	movl	$5, -4872(%rbp)
	movl	$5, -4876(%rbp)
	movl	$5, -4880(%rbp)
	movl	$5, -4884(%rbp)
	movl	$5, -4888(%rbp)
	movl	$5, -4892(%rbp)
	movl	$5, -4896(%rbp)
	movl	$5, -4900(%rbp)
	movl	$5, -4904(%rbp)
	movl	$5, -4908(%rbp)
	movl	$5, -4912(%rbp)
	movl	$5, -4916(%rbp)
	movl	$5, -4920(%rbp)
	movl	$5, -4924(%rbp)
	movl	$5, -4928(%rbp)
	movl	$5, -4932(%rbp)
	movl	$5, -4936(%rbp)
	movl	$5, -4940(%rbp)
	movl	$5, -4944(%rbp)
	movl	$5, -4948(%rbp)
	movl	$5, -4952(%rbp)
	movl	$5, -4956(%rbp)
	movl	$5, -4960(%rbp)
	movl	$5, -4964(%rbp)
	movl	$5, -4968(%rbp)
	movl	$5, -4972(%rbp)
	movl	$5, -4976(%rbp)
	movl	$5, -4980(%rbp)
	movl	$5, -4984(%rbp)
	movl	$5, -4988(%rbp)
	movl	$5, -4992(%rbp)
	movl	$5, -4996(%rbp)
	movl	$5, -5000(%rbp)
	movl	$5, -5004(%rbp)
	movl	$5, -5008(%rbp)
	movl	$5, -5012(%rbp)
	movl	$5, -5016(%rbp)
	movl	$5, -5020(%rbp)
	movl	$5, -5024(%rbp)
	movl	$5, -5028(%rbp)
	movl	$5, -5032(%rbp)
	movl	$5, -5036(%rbp)
	movl	$5, -5040(%rbp)
	movl	$5, -5044(%rbp)
	movl	$5, -5048(%rbp)
	movl	$5, -5052(%rbp)
	movl	$5, -5056(%rbp)
	movl	$5, -5060(%rbp)
	movl	$5, -5064(%rbp)
	movl	$5, -5068(%rbp)
	movl	$5, -5072(%rbp)
	movl	$5, -5076(%rbp)
	movl	$5, -5080(%rbp)
	movl	$5, -5084(%rbp)
	movl	$5, -5088(%rbp)
	movl	$5, -5092(%rbp)
	movl	$5, -5096(%rbp)
	movl	$5, -5100(%rbp)
	movl	$5, -5104(%rbp)
	movl	$5, -5108(%rbp)
	movl	$5, -5112(%rbp)
	movl	$5, -5116(%rbp)
	movl	$5, -5120(%rbp)
	movl	$5, -5124(%rbp)
	movl	$5, -5128(%rbp)
	movl	$5, -5132(%rbp)
	movl	$5, -5136(%rbp)
	movl	$5, -5140(%rbp)
	movl	$5, -5144(%rbp)
	movl	$5, -5148(%rbp)
	movl	$5, -5152(%rbp)
	movl	$5, -5156(%rbp)
	movl	$5, -5160(%rbp)
	movl	$5, -5164(%rbp)
	movl	$5, -5168(%rbp)
	movl	$5, -5172(%rbp)
	movl	$5, -5176(%rbp)
	movl	$5, -5180(%rbp)
	movl	$5, -5184(%rbp)
	movl	$5, -5188(%rbp)
	movl	$5, -5192(%rbp)
	movl	$5, -5196(%rbp)
	movl	$5, -5200(%rbp)
	movl	$5, -5204(%rbp)
	movl	$5, -5208(%rbp)
	movl	$5, -5212(%rbp)
	movl	$5, -5216(%rbp)
	movl	$5, -5220(%rbp)
	movl	$5, -5224(%rbp)
	movl	$5, -5228(%rbp)
	movl	$5, -5232(%rbp)
	movl	$5, -5236(%rbp)
	movl	$5, -5240(%rbp)
	movl	$5, -5244(%rbp)
	movl	$5, -5248(%rbp)
	movl	$5, -5252(%rbp)
	movl	$5, -5256(%rbp)
	movl	$5, -5260(%rbp)
	movl	$5, -5264(%rbp)
	movl	$5, -5268(%rbp)
	movl	$5, -5272(%rbp)
	movl	$5, -5276(%rbp)
	movl	$5, -5280(%rbp)
	movl	$5, -5284(%rbp)
	movl	$5, -5288(%rbp)
	movl	$5, -5292(%rbp)
	movl	$5, -5296(%rbp)
	movl	$5, -5300(%rbp)
	movl	$5, -5304(%rbp)
	movl	$5, -5308(%rbp)
	movl	$5, -5312(%rbp)
	movl	$5, -5316(%rbp)
	movl	$5, -5320(%rbp)
	movl	$5, -5324(%rbp)
	movl	$5, -5328(%rbp)
	movl	$5, -5332(%rbp)
	movl	$5, -5336(%rbp)
	movl	$5, -5340(%rbp)
	movl	$5, -5344(%rbp)
	movl	$5, -5348(%rbp)
	movl	$5, -5352(%rbp)
	movl	$5, -5356(%rbp)
	movl	$5, -5360(%rbp)
	movl	$5, -5364(%rbp)
	movl	$5, -5368(%rbp)
	movl	$5, -5372(%rbp)
	movl	$5, -5376(%rbp)
	movl	$5, -5380(%rbp)
	movl	$5, -5384(%rbp)
	movl	$5, -5388(%rbp)
	movl	$5, -5392(%rbp)
	movl	$5, -5396(%rbp)
	movl	$5, -5400(%rbp)
	movl	$5, -5404(%rbp)
	movl	$5, -5408(%rbp)
	movl	$5, -5412(%rbp)
	movl	$5, -5416(%rbp)
	movl	$5, -5420(%rbp)
	movl	$5, -5424(%rbp)
	movl	$5, -5428(%rbp)
	movl	$5, -5432(%rbp)
	movl	$5, -5436(%rbp)
	movl	$5, -5440(%rbp)
	movl	$5, -5444(%rbp)
	movl	$5, -5448(%rbp)
	movl	$5, -5452(%rbp)
	movl	$5, -5456(%rbp)
	movl	$5, -5460(%rbp)
	movl	$5, -5464(%rbp)
	movl	$5, -5468(%rbp)
	movl	$5, -5472(%rbp)
	movl	$5, -5476(%rbp)
	movl	$5, -5480(%rbp)
	movl	$5, -5484(%rbp)
	movl	$5, -5488(%rbp)
	movl	$5, -5492(%rbp)
	movl	$5, -5496(%rbp)
	movl	$5, -5500(%rbp)
	movl	$5, -5504(%rbp)
	movl	$5, -5508(%rbp)
	movl	$5, -5512(%rbp)
	movl	$5, -5516(%rbp)
	movl	$5, -5520(%rbp)
	movl	$5, -5524(%rbp)
	movl	$5, -5528(%rbp)
	movl	$5, -5532(%rbp)
	movl	$5, -5536(%rbp)
	movl	$5, -5540(%rbp)
	movl	$5, -5544(%rbp)
	movl	$5, -5548(%rbp)
	movl	$5, -5552(%rbp)
	movl	$5, -5556(%rbp)
	movl	$5, -5560(%rbp)
	movl	$5, -5564(%rbp)
	movl	$5, -5568(%rbp)
	movl	$5, -5572(%rbp)
	movl	$5, -5576(%rbp)
	movl	$5, -5580(%rbp)
	movl	$5, -5584(%rbp)
	movl	$5, -5588(%rbp)
	movl	$5, -5592(%rbp)
	movl	$5, -5596(%rbp)
	movl	$5, -5600(%rbp)
	movl	$5, -5604(%rbp)
	movl	$5, -5608(%rbp)
	movl	$5, -5612(%rbp)
	movl	$5, -5616(%rbp)
	movl	$5, -5620(%rbp)
	movl	$5, -5624(%rbp)
	movl	$5, -5628(%rbp)
	movl	$5, -5632(%rbp)
	movl	$5, -5636(%rbp)
	movl	$5, -5640(%rbp)
	movl	$5, -5644(%rbp)
	movl	$5, -5648(%rbp)
	movl	$5, -5652(%rbp)
	movl	$5, -5656(%rbp)
	movl	$5, -5660(%rbp)
	movl	$5, -5664(%rbp)
	movl	$5, -5668(%rbp)
	movl	$5, -5672(%rbp)
	movl	$5, -5676(%rbp)
	movl	$5, -5680(%rbp)
	movl	$5, -5684(%rbp)
	movl	$5, -5688(%rbp)
	movl	$5, -5692(%rbp)
	movl	$5, -5696(%rbp)
	movl	$5, -5700(%rbp)
	movl	$5, -5704(%rbp)
	movl	$5, -5708(%rbp)
	movl	$5, -5712(%rbp)
	movl	$5, -5716(%rbp)
	movl	$5, -5720(%rbp)
	movl	$5, -5724(%rbp)
	movl	$5, -5728(%rbp)
	movl	$5, -5732(%rbp)
	movl	$5, -5736(%rbp)
	movl	$5, -5740(%rbp)
	movl	$5, -5744(%rbp)
	movl	$5, -5748(%rbp)
	movl	$5, -5752(%rbp)
	movl	$5, -5756(%rbp)
	movl	$5, -5760(%rbp)
	movl	$5, -5764(%rbp)
	movl	$5, -5768(%rbp)
	movl	$5, -5772(%rbp)
	movl	$5, -5776(%rbp)
	movl	$5, -5780(%rbp)
	movl	$5, -5784(%rbp)
	movl	$5, -5788(%rbp)
	movl	$5, -5792(%rbp)
	movl	$5, -5796(%rbp)
	movl	$5, -5800(%rbp)
	movl	$5, -5804(%rbp)
	movl	$5, -5808(%rbp)
	movl	$5, -5812(%rbp)
	movl	$5, -5816(%rbp)
	movl	$5, -5820(%rbp)
	movl	$5, -5824(%rbp)
	movl	$5, -5828(%rbp)
	movl	$5, -5832(%rbp)
	movl	$5, -5836(%rbp)
	movl	$5, -5840(%rbp)
	movl	$5, -5844(%rbp)
	movl	$5, -5848(%rbp)
	movl	$5, -5852(%rbp)
	movl	$5, -5856(%rbp)
	movl	$5, -5860(%rbp)
	movl	$5, -5864(%rbp)
	movl	$5, -5868(%rbp)
	movl	$5, -5872(%rbp)
	movl	$5, -5876(%rbp)
	movl	$5, -5880(%rbp)
	movl	$5, -5884(%rbp)
	movl	$5, -5888(%rbp)
	movl	$5, -5892(%rbp)
	movl	$5, -5896(%rbp)
	movl	$5, -5900(%rbp)
	movl	$5, -5904(%rbp)
	movl	$5, -5908(%rbp)
	movl	$5, -5912(%rbp)
	movl	$5, -5916(%rbp)
	movl	$5, -5920(%rbp)
	movl	$5, -5924(%rbp)
	movl	$5, -5928(%rbp)
	movl	$5, -5932(%rbp)
	movl	$5, -5936(%rbp)
	movl	$5, -5940(%rbp)
	movl	$5, -5944(%rbp)
	movl	$5, -5948(%rbp)
	movl	$5, -5952(%rbp)
	movl	$5, -5956(%rbp)
	movl	$5, -5960(%rbp)
	movl	$5, -5964(%rbp)
	movl	$5, -5968(%rbp)
	movl	$5, -5972(%rbp)
	movl	$5, -5976(%rbp)
	movl	$5, -5980(%rbp)
	movl	$5, -5984(%rbp)
	movl	$5, -5988(%rbp)
	movl	$5, -5992(%rbp)
	movl	$5, -5996(%rbp)
	movl	$5, -6000(%rbp)
	movl	$5, -6004(%rbp)
	movl	$5, -6008(%rbp)
	movl	$5, -6012(%rbp)
	movl	$5, -6016(%rbp)
	movl	$5, -6020(%rbp)
	movl	$5, -6024(%rbp)
	movl	$5, -6028(%rbp)
	movl	$5, -6032(%rbp)
	movl	$5, -6036(%rbp)
	movl	$5, -6040(%rbp)
	movl	$5, -6044(%rbp)
	movl	$5, -6048(%rbp)
	movl	$5, -6052(%rbp)
	movl	$5, -6056(%rbp)
	movl	$5, -6060(%rbp)
	movl	$5, -6064(%rbp)
	movl	$5, -6068(%rbp)
	movl	$5, -6072(%rbp)
	movl	$5, -6076(%rbp)
	movl	$5, -6080(%rbp)
	movl	$5, -6084(%rbp)
	movl	$5, -6088(%rbp)
	movl	$5, -6092(%rbp)
	movl	$5, -6096(%rbp)
	movl	$5, -6100(%rbp)
	movl	$5, -6104(%rbp)
	movl	$5, -6108(%rbp)
	movl	$5, -6112(%rbp)
	movl	$5, -6116(%rbp)
	movl	$5, -6120(%rbp)
	movl	$5, -6124(%rbp)
	movl	$5, -6128(%rbp)
	movl	$5, -6132(%rbp)
	movl	$5, -6136(%rbp)
	movl	$5, -6140(%rbp)
	movl	$5, -6144(%rbp)
	movl	$5, -6148(%rbp)
	movl	$5, -6152(%rbp)
	movl	$5, -6156(%rbp)
	movl	$5, -6160(%rbp)
	movl	$5, -6164(%rbp)
	movl	$5, -6168(%rbp)
	movl	$5, -6172(%rbp)
	movl	$5, -6176(%rbp)
	movl	$5, -6180(%rbp)
	movl	$5, -6184(%rbp)
	movl	$5, -6188(%rbp)
	movl	$5, -6192(%rbp)
	movl	$5, -6196(%rbp)
	movl	$5, -6200(%rbp)
	movl	$5, -6204(%rbp)
	movl	$5, -6208(%rbp)
	movl	$5, -6212(%rbp)
	movl	$5, -6216(%rbp)
	movl	$5, -6220(%rbp)
	movl	$5, -6224(%rbp)
	movl	$5, -6228(%rbp)
	movl	$5, -6232(%rbp)
	movl	$5, -6236(%rbp)
	movl	$5, -6240(%rbp)
	movl	$5, -6244(%rbp)
	movl	$5, -6248(%rbp)
	movl	$5, -6252(%rbp)
	movl	$5, -6256(%rbp)
	movl	$5, -6260(%rbp)
	movl	$5, -6264(%rbp)
	movl	$5, -6268(%rbp)
	movl	$5, -6272(%rbp)
	movl	$5, -6276(%rbp)
	movl	$5, -6280(%rbp)
	movl	$5, -6284(%rbp)
	movl	$5, -6288(%rbp)
	movl	$5, -6292(%rbp)
	movl	$5, -6296(%rbp)
	movl	$5, -6300(%rbp)
	movl	$5, -6304(%rbp)
	movl	$5, -6308(%rbp)
	movl	$5, -6312(%rbp)
	movl	$5, -6316(%rbp)
	movl	$5, -6320(%rbp)
	movl	$5, -6324(%rbp)
	movl	$5, -6328(%rbp)
	movl	$5, -6332(%rbp)
	movl	$5, -6336(%rbp)
	movl	$5, -6340(%rbp)
	movl	$5, -6344(%rbp)
	movl	$5, -6348(%rbp)
	movl	$5, -6352(%rbp)
	movl	$5, -6356(%rbp)
	movl	$5, -6360(%rbp)
	movl	$5, -6364(%rbp)
	movl	$5, -6368(%rbp)
	movl	$5, -6372(%rbp)
	movl	$5, -6376(%rbp)
	movl	$5, -6380(%rbp)
	movl	$5, -6384(%rbp)
	movl	$5, -6388(%rbp)
	movl	$5, -6392(%rbp)
	movl	$5, -6396(%rbp)
	movl	$5, -6400(%rbp)
	movl	$5, -6404(%rbp)
	movl	$5, -6408(%rbp)
	movl	$5, -6412(%rbp)
	movl	$5, -6416(%rbp)
	movl	$5, -6420(%rbp)
	movl	$5, -6424(%rbp)
	movl	$5, -6428(%rbp)
	movl	$5, -6432(%rbp)
	movl	$5, -6436(%rbp)
	movl	$5, -6440(%rbp)
	movl	$5, -6444(%rbp)
	movl	$5, -6448(%rbp)
	movl	$5, -6452(%rbp)
	movl	$5, -6456(%rbp)
	movl	$5, -6460(%rbp)
	movl	$5, -6464(%rbp)
	movl	$5, -6468(%rbp)
	movl	$5, -6472(%rbp)
	movl	$5, -6476(%rbp)
	movl	$5, -6480(%rbp)
	movl	$5, -6484(%rbp)
	movl	$5, -6488(%rbp)
	movl	$5, -6492(%rbp)
	movl	$5, -6496(%rbp)
	movl	$5, -6500(%rbp)
	movl	$5, -6504(%rbp)
	movl	$5, -6508(%rbp)
	movl	$5, -6512(%rbp)
	movl	$5, -6516(%rbp)
	movl	$5, -6520(%rbp)
	movl	$5, -6524(%rbp)
	movl	$5, -6528(%rbp)
	movl	$5, -6532(%rbp)
	movl	$5, -6536(%rbp)
	movl	$5, -6540(%rbp)
	movl	$5, -6544(%rbp)
	movl	$5, -6548(%rbp)
	movl	$5, -6552(%rbp)
	movl	$5, -6556(%rbp)
	movl	$5, -6560(%rbp)
	movl	$5, -6564(%rbp)
	movl	$5, -6568(%rbp)
	movl	$5, -6572(%rbp)
	movl	$5, -6576(%rbp)
	movl	$5, -6580(%rbp)
	movl	$5, -6584(%rbp)
	movl	$5, -6588(%rbp)
	movl	$5, -6592(%rbp)
	movl	$5, -6596(%rbp)
	movl	$5, -6600(%rbp)
	movl	$5, -6604(%rbp)
	movl	$5, -6608(%rbp)
	movl	$5, -6612(%rbp)
	movl	$5, -6616(%rbp)
	movl	$5, -6620(%rbp)
	movl	$5, -6624(%rbp)
	movl	$5, -6628(%rbp)
	movl	$5, -6632(%rbp)
	movl	$5, -6636(%rbp)
	movl	$5, -6640(%rbp)
	movl	$5, -6644(%rbp)
	movl	$5, -6648(%rbp)
	movl	$5, -6652(%rbp)
	movl	$5, -6656(%rbp)
	movl	$5, -6660(%rbp)
	movl	$5, -6664(%rbp)
	movl	$5, -6668(%rbp)
	movl	$5, -6672(%rbp)
	movl	$5, -6676(%rbp)
	movl	$5, -6680(%rbp)
	movl	$5, -6684(%rbp)
	movl	$5, -6688(%rbp)
	movl	$5, -6692(%rbp)
	movl	$5, -6696(%rbp)
	movl	$5, -6700(%rbp)
	movl	$5, -6704(%rbp)
	movl	$5, -6708(%rbp)
	movl	$5, -6712(%rbp)
	movl	$5, -6716(%rbp)
	movl	$5, -6720(%rbp)
	movl	$5, -6724(%rbp)
	movl	$5, -6728(%rbp)
	movl	$5, -6732(%rbp)
	movl	$5, -6736(%rbp)
	movl	$5, -6740(%rbp)
	movl	$5, -6744(%rbp)
	movl	$5, -6748(%rbp)
	movl	$5, -6752(%rbp)
	movl	$5, -6756(%rbp)
	movl	$5, -6760(%rbp)
	movl	$5, -6764(%rbp)
	movl	$5, -6768(%rbp)
	movl	$5, -6772(%rbp)
	movl	$5, -6776(%rbp)
	movl	$5, -6780(%rbp)
	movl	$5, -6784(%rbp)
	movl	$5, -6788(%rbp)
	movl	$5, -6792(%rbp)
	movl	$5, -6796(%rbp)
	movl	$5, -6800(%rbp)
	movl	$5, -6804(%rbp)
	movl	$5, -6808(%rbp)
	movl	$5, -6812(%rbp)
	movl	$5, -6816(%rbp)
	movl	$5, -6820(%rbp)
	movl	$5, -6824(%rbp)
	movl	$5, -6828(%rbp)
	movl	$5, -6832(%rbp)
	movl	$5, -6836(%rbp)
	movl	$5, -6840(%rbp)
	movl	$5, -6844(%rbp)
	movl	$5, -6848(%rbp)
	movl	$5, -6852(%rbp)
	movl	$5, -6856(%rbp)
	movl	$5, -6860(%rbp)
	movl	$5, -6864(%rbp)
	movl	$5, -6868(%rbp)
	movl	$5, -6872(%rbp)
	movl	$5, -6876(%rbp)
	movl	$5, -6880(%rbp)
	movl	$5, -6884(%rbp)
	movl	$5, -6888(%rbp)
	movl	$5, -6892(%rbp)
	movl	$5, -6896(%rbp)
	movl	$5, -6900(%rbp)
	movl	$5, -6904(%rbp)
	movl	$5, -6908(%rbp)
	movl	$5, -6912(%rbp)
	movl	$5, -6916(%rbp)
	movl	$5, -6920(%rbp)
	movl	$5, -6924(%rbp)
	movl	$5, -6928(%rbp)
	movl	$5, -6932(%rbp)
	movl	$5, -6936(%rbp)
	movl	$5, -6940(%rbp)
	movl	$5, -6944(%rbp)
	movl	$5, -6948(%rbp)
	movl	$5, -6952(%rbp)
	movl	$5, -6956(%rbp)
	movl	$5, -6960(%rbp)
	movl	$5, -6964(%rbp)
	movl	$5, -6968(%rbp)
	movl	$5, -6972(%rbp)
	movl	$5, -6976(%rbp)
	movl	$5, -6980(%rbp)
	movl	$5, -6984(%rbp)
	movl	$5, -6988(%rbp)
	movl	$5, -6992(%rbp)
	movl	$5, -6996(%rbp)
	movl	$5, -7000(%rbp)
	movl	$5, -7004(%rbp)
	movl	$5, -7008(%rbp)
	movl	$5, -7012(%rbp)
	movl	$5, -7016(%rbp)
	movl	$5, -7020(%rbp)
	movl	$5, -7024(%rbp)
	movl	$5, -7028(%rbp)
	movl	$5, -7032(%rbp)
	movl	$5, -7036(%rbp)
	movl	$5, -7040(%rbp)
	movl	$5, -7044(%rbp)
	movl	$5, -7048(%rbp)
	movl	$5, -7052(%rbp)
	movl	$5, -7056(%rbp)
	movl	$5, -7060(%rbp)
	movl	$5, -7064(%rbp)
	movl	$5, -7068(%rbp)
	movl	$5, -7072(%rbp)
	movl	$5, -7076(%rbp)
	movl	$5, -7080(%rbp)
	movl	$5, -7084(%rbp)
	movl	$5, -7088(%rbp)
	movl	$5, -7092(%rbp)
	movl	$5, -7096(%rbp)
	movl	$5, -7100(%rbp)
	movl	$5, -7104(%rbp)
	movl	$5, -7108(%rbp)
	movl	$5, -7112(%rbp)
	movl	$5, -7116(%rbp)
	movl	$5, -7120(%rbp)
	movl	$5, -7124(%rbp)
	movl	$5, -7128(%rbp)
	movl	$5, -7132(%rbp)
	movl	$5, -7136(%rbp)
	movl	$5, -7140(%rbp)
	movl	$5, -7144(%rbp)
	movl	$5, -7148(%rbp)
	movl	$5, -7152(%rbp)
	movl	$5, -7156(%rbp)
	movl	$5, -7160(%rbp)
	movl	$5, -7164(%rbp)
	movl	$5, -7168(%rbp)
	movl	$5, -7172(%rbp)
	movl	$5, -7176(%rbp)
	movl	$5, -7180(%rbp)
	movl	$5, -7184(%rbp)
	movl	$5, -7188(%rbp)
	movl	$5, -7192(%rbp)
	movl	$5, -7196(%rbp)
	movl	$5, -7200(%rbp)
	movl	$5, -7204(%rbp)
	movl	$5, -7208(%rbp)
	movl	$5, -7212(%rbp)
	movl	$5, -7216(%rbp)
	movl	$5, -7220(%rbp)
	movl	$5, -7224(%rbp)
	movl	$5, -7228(%rbp)
	movl	$5, -7232(%rbp)
	movl	$5, -7236(%rbp)
	movl	$5, -7240(%rbp)
	movl	$5, -7244(%rbp)
	movl	$5, -7248(%rbp)
	movl	$5, -7252(%rbp)
	movl	$5, -7256(%rbp)
	movl	$5, -7260(%rbp)
	movl	$5, -7264(%rbp)
	movl	$5, -7268(%rbp)
	movl	$5, -7272(%rbp)
	movl	$5, -7276(%rbp)
	movl	$5, -7280(%rbp)
	movl	$5, -7284(%rbp)
	movl	$5, -7288(%rbp)
	movl	$5, -7292(%rbp)
	movl	$5, -7296(%rbp)
	movl	$5, -7300(%rbp)
	movl	$5, -7304(%rbp)
	movl	$5, -7308(%rbp)
	movl	$5, -7312(%rbp)
	movl	$5, -7316(%rbp)
	movl	$5, -7320(%rbp)
	movl	$5, -7324(%rbp)
	movl	$5, -7328(%rbp)
	movl	$5, -7332(%rbp)
	movl	$5, -7336(%rbp)
	movl	$5, -7340(%rbp)
	movl	$5, -7344(%rbp)
	movl	$5, -7348(%rbp)
	movl	$5, -7352(%rbp)
	movl	$5, -7356(%rbp)
	movl	$5, -7360(%rbp)
	movl	$5, -7364(%rbp)
	movl	$5, -7368(%rbp)
	movl	$5, -7372(%rbp)
	movl	$5, -7376(%rbp)
	movl	$5, -7380(%rbp)
	movl	$5, -7384(%rbp)
	movl	$5, -7388(%rbp)
	movl	$5, -7392(%rbp)
	movl	$5, -7396(%rbp)
	movl	$5, -7400(%rbp)
	movl	$5, -7404(%rbp)
	movl	$5, -7408(%rbp)
	movl	$5, -7412(%rbp)
	movl	$5, -7416(%rbp)
	movl	$5, -7420(%rbp)
	movl	$5, -7424(%rbp)
	movl	$5, -7428(%rbp)
	movl	$5, -7432(%rbp)
	movl	$5, -7436(%rbp)
	movl	$5, -7440(%rbp)
	movl	$5, -7444(%rbp)
	movl	$5, -7448(%rbp)
	movl	$5, -7452(%rbp)
	movl	$5, -7456(%rbp)
	movl	$5, -7460(%rbp)
	movl	$5, -7464(%rbp)
	movl	$5, -7468(%rbp)
	movl	$5, -7472(%rbp)
	movl	$5, -7476(%rbp)
	movl	$5, -7480(%rbp)
	movl	$5, -7484(%rbp)
	movl	$5, -7488(%rbp)
	movl	$5, -7492(%rbp)
	movl	$5, -7496(%rbp)
	movl	$5, -7500(%rbp)
	movl	$5, -7504(%rbp)
	movl	$5, -7508(%rbp)
	movl	$5, -7512(%rbp)
	movl	$5, -7516(%rbp)
	movl	$5, -7520(%rbp)
	movl	$5, -7524(%rbp)
	movl	$5, -7528(%rbp)
	movl	$5, -7532(%rbp)
	movl	$5, -7536(%rbp)
	movl	$5, -7540(%rbp)
	movl	$5, -7544(%rbp)
	movl	$5, -7548(%rbp)
	movl	$5, -7552(%rbp)
	movl	$5, -7556(%rbp)
	movl	$5, -7560(%rbp)
	movl	$5, -7564(%rbp)
	movl	$5, -7568(%rbp)
	movl	$5, -7572(%rbp)
	movl	$5, -7576(%rbp)
	movl	$5, -7580(%rbp)
	movl	$5, -7584(%rbp)
	movl	$5, -7588(%rbp)
	movl	$5, -7592(%rbp)
	movl	$5, -7596(%rbp)
	movl	$5, -7600(%rbp)
	movl	$5, -7604(%rbp)
	movl	$5, -7608(%rbp)
	movl	$5, -7612(%rbp)
	movl	$5, -7616(%rbp)
	movl	$5, -7620(%rbp)
	movl	$5, -7624(%rbp)
	movl	$5, -7628(%rbp)
	movl	$5, -7632(%rbp)
	movl	$5, -7636(%rbp)
	movl	$5, -7640(%rbp)
	movl	$5, -7644(%rbp)
	movl	$5, -7648(%rbp)
	movl	$5, -7652(%rbp)
	movl	$5, -7656(%rbp)
	movl	$5, -7660(%rbp)
	movl	$5, -7664(%rbp)
	movl	$5, -7668(%rbp)
	movl	$5, -7672(%rbp)
	movl	$5, -7676(%rbp)
	movl	$5, -7680(%rbp)
	movl	$5, -7684(%rbp)
	movl	$5, -7688(%rbp)
	movl	$5, -7692(%rbp)
	movl	$5, -7696(%rbp)
	movl	$5, -7700(%rbp)
	movl	$5, -7704(%rbp)
	movl	$5, -7708(%rbp)
	movl	$5, -7712(%rbp)
	movl	$5, -7716(%rbp)
	movl	$5, -7720(%rbp)
	movl	$5, -7724(%rbp)
	movl	$5, -7728(%rbp)
	movl	$5, -7732(%rbp)
	movl	$5, -7736(%rbp)
	movl	$5, -7740(%rbp)
	movl	$5, -7744(%rbp)
	movl	$5, -7748(%rbp)
	movl	$5, -7752(%rbp)
	movl	$5, -7756(%rbp)
	movl	$5, -7760(%rbp)
	movl	$5, -7764(%rbp)
	movl	$5, -7768(%rbp)
	movl	$5, -7772(%rbp)
	movl	$5, -7776(%rbp)
	movl	$5, -7780(%rbp)
	movl	$5, -7784(%rbp)
	movl	$5, -7788(%rbp)
	movl	$5, -7792(%rbp)
	movl	$5, -7796(%rbp)
	movl	$5, -7800(%rbp)
	movl	$5, -7804(%rbp)
	movl	$5, -7808(%rbp)
	movl	$5, -7812(%rbp)
	movl	$5, -7816(%rbp)
	movl	$5, -7820(%rbp)
	movl	$5, -7824(%rbp)
	movl	$5, -7828(%rbp)
	movl	$5, -7832(%rbp)
	movl	$5, -7836(%rbp)
	movl	$5, -7840(%rbp)
	movl	$5, -7844(%rbp)
	movl	$5, -7848(%rbp)
	movl	$5, -7852(%rbp)
	movl	$5, -7856(%rbp)
	movl	$5, -7860(%rbp)
	movl	$5, -7864(%rbp)
	movl	$5, -7868(%rbp)
	movl	$5, -7872(%rbp)
	movl	$5, -7876(%rbp)
	movl	$5, -7880(%rbp)
	movl	$5, -7884(%rbp)
	movl	$5, -7888(%rbp)
	movl	$5, -7892(%rbp)
	movl	$5, -7896(%rbp)
	movl	$5, -7900(%rbp)
	movl	$5, -7904(%rbp)
	movl	$5, -7908(%rbp)
	movl	$5, -7912(%rbp)
	movl	$5, -7916(%rbp)
	movl	$5, -7920(%rbp)
	movl	$5, -7924(%rbp)
	movl	$5, -7928(%rbp)
	movl	$5, -7932(%rbp)
	movl	$5, -7936(%rbp)
	movl	$5, -7940(%rbp)
	movl	$5, -7944(%rbp)
	movl	$5, -7948(%rbp)
	movl	$5, -7952(%rbp)
	movl	$5, -7956(%rbp)
	movl	$5, -7960(%rbp)
	movl	$5, -7964(%rbp)
	movl	$5, -7968(%rbp)
	movl	$5, -7972(%rbp)
	movl	$5, -7976(%rbp)
	movl	$5, -7980(%rbp)
	movl	$5, -7984(%rbp)
	movl	$5, -7988(%rbp)
	movl	$5, -7992(%rbp)
	movl	$5, -7996(%rbp)
	movl	$5, -8000(%rbp)
	movl	$5, -8004(%rbp)
	movl	$5, -8008(%rbp)
	movl	$5, -8012(%rbp)
	movl	$5, -8016(%rbp)
	movl	$5, -8020(%rbp)
	movl	$5, -8024(%rbp)
	movl	$5, -8028(%rbp)
	movl	$5, -8032(%rbp)
	movl	$5, -8036(%rbp)
	movl	$5, -8040(%rbp)
	movl	$5, -8044(%rbp)
	movl	$5, -8048(%rbp)
	movl	$5, -8052(%rbp)
	movl	$5, -8056(%rbp)
	movl	$5, -8060(%rbp)
	movl	$5, -8064(%rbp)
	movl	$5, -8068(%rbp)
	movl	$5, -8072(%rbp)
	movl	$5, -8076(%rbp)
	movl	$5, -8080(%rbp)
	movl	$5, -8084(%rbp)
	movl	$5, -8088(%rbp)
	movl	$5, -8092(%rbp)
	movl	$5, -8096(%rbp)
	movl	$5, -8100(%rbp)
	movl	$5, -8104(%rbp)
	movl	$5, -8108(%rbp)
	movl	$5, -8112(%rbp)
	movl	$5, -8116(%rbp)
	movl	$5, -8120(%rbp)
	movl	$5, -8124(%rbp)
	movl	$5, -8128(%rbp)
	movl	$5, -8132(%rbp)
	movl	$5, -8136(%rbp)
	movl	$5, -8140(%rbp)
	movl	$5, -8144(%rbp)
	movl	$5, -8148(%rbp)
	movl	$5, -8152(%rbp)
	movl	$5, -8156(%rbp)
	movl	$5, -8160(%rbp)
	movl	$5, -8164(%rbp)
	movl	$5, -8168(%rbp)
	movl	$5, -8172(%rbp)
	movl	$5, -8176(%rbp)
	movl	$5, -8180(%rbp)
	movl	$5, -8184(%rbp)
	movl	$5, -8188(%rbp)
	movl	$5, -8192(%rbp)
	movl	$5, -8196(%rbp)
	movl	$5, -8200(%rbp)
	movl	$5, -8204(%rbp)
	movl	$5, -8208(%rbp)
	movl	$5, -8212(%rbp)
	movl	$5, -8216(%rbp)
	movl	$5, -8220(%rbp)
	movl	$5, -8224(%rbp)
	movl	$5, -8228(%rbp)
	movl	$5, -8232(%rbp)
	movl	$5, -8236(%rbp)
	movl	$5, -8240(%rbp)
	movl	$5, -8244(%rbp)
	movl	$5, -8248(%rbp)
	movl	$5, -8252(%rbp)
	movl	$5, -8256(%rbp)
	movl	$5, -8260(%rbp)
	movl	$5, -8264(%rbp)
	movl	$5, -8268(%rbp)
	movl	$5, -8272(%rbp)
	movl	$5, -8276(%rbp)
	movl	$5, -8280(%rbp)
	movl	$5, -8284(%rbp)
	movl	$5, -8288(%rbp)
	movl	$5, -8292(%rbp)
	movl	$5, -8296(%rbp)
	movl	$5, -8300(%rbp)
	movl	$5, -8304(%rbp)
	movl	$5, -8308(%rbp)
	movl	$5, -8312(%rbp)
	movl	$5, -8316(%rbp)
	movl	$5, -8320(%rbp)
	movl	$5, -8324(%rbp)
	movl	$5, -8328(%rbp)
	movl	$5, -8332(%rbp)
	movl	$5, -8336(%rbp)
	movl	$5, -8340(%rbp)
	movl	$5, -8344(%rbp)
	movl	$5, -8348(%rbp)
	movl	$5, -8352(%rbp)
	movl	$5, -8356(%rbp)
	movl	$5, -8360(%rbp)
	movl	$5, -8364(%rbp)
	movl	$5, -8368(%rbp)
	movl	$5, -8372(%rbp)
	movl	$5, -8376(%rbp)
	movl	$5, -8380(%rbp)
	movl	$5, -8384(%rbp)
	movl	$5, -8388(%rbp)
	movl	$5, -8392(%rbp)
	movl	$5, -8396(%rbp)
	movl	$5, -8400(%rbp)
	movl	$5, -8404(%rbp)
	movl	$5, -8408(%rbp)
	movl	$5, -8412(%rbp)
	movl	$5, -8416(%rbp)
	movl	$5, -8420(%rbp)
	movl	$5, -8424(%rbp)
	movl	$5, -8428(%rbp)
	movl	$5, -8432(%rbp)
	movl	$5, -8436(%rbp)
	movl	$5, -8440(%rbp)
	movl	$5, -8444(%rbp)
	movl	$5, -8448(%rbp)
	movl	$5, -8452(%rbp)
	movl	$5, -8456(%rbp)
	movl	$5, -8460(%rbp)
	movl	$5, -8464(%rbp)
	movl	$5, -8468(%rbp)
	movl	$5, -8472(%rbp)
	movl	$5, -8476(%rbp)
	movl	$5, -8480(%rbp)
	movl	$5, -8484(%rbp)
	movl	$5, -8488(%rbp)
	movl	$5, -8492(%rbp)
	movl	$5, -8496(%rbp)
	movl	$5, -8500(%rbp)
	movl	$5, -8504(%rbp)
	movl	$5, -8508(%rbp)
	movl	$5, -8512(%rbp)
	movl	$5, -8516(%rbp)
	movl	$5, -8520(%rbp)
	movl	$5, -8524(%rbp)
	movl	$5, -8528(%rbp)
	movl	$5, -8532(%rbp)
	movl	$5, -8536(%rbp)
	movl	$5, -8540(%rbp)
	movl	$5, -8544(%rbp)
	movl	$5, -8548(%rbp)
	movl	$5, -8552(%rbp)
	movl	$5, -8556(%rbp)
	movl	$5, -8560(%rbp)
	movl	$5, -8564(%rbp)
	movl	$5, -8568(%rbp)
	movl	$5, -8572(%rbp)
	movl	$5, -8576(%rbp)
	movl	$5, -8580(%rbp)
	movl	$5, -8584(%rbp)
	movl	$5, -8588(%rbp)
	movl	$5, -8592(%rbp)
	movl	$5, -8596(%rbp)
	movl	$5, -8600(%rbp)
	movl	$5, -8604(%rbp)
	movl	$5, -8608(%rbp)
	movl	$5, -8612(%rbp)
	movl	$5, -8616(%rbp)
	movl	$5, -8620(%rbp)
	movl	$5, -8624(%rbp)
	movl	$5, -8628(%rbp)
	movl	$5, -8632(%rbp)
	movl	$5, -8636(%rbp)
	movl	$5, -8640(%rbp)
	movl	$5, -8644(%rbp)
	movl	$5, -8648(%rbp)
	movl	$5, -8652(%rbp)
	movl	$5, -8656(%rbp)
	movl	$5, -8660(%rbp)
	movl	$5, -8664(%rbp)
	movl	$5, -8668(%rbp)
	movl	$5, -8672(%rbp)
	movl	$5, -8676(%rbp)
	movl	$5, -8680(%rbp)
	movl	$5, -8684(%rbp)
	movl	$5, -8688(%rbp)
	movl	$5, -8692(%rbp)
	movl	$5, -8696(%rbp)
	movl	$5, -8700(%rbp)
	movl	$5, -8704(%rbp)
	movl	$5, -8708(%rbp)
	movl	$5, -8712(%rbp)
	movl	$5, -8716(%rbp)
	movl	$5, -8720(%rbp)
	movl	$5, -8724(%rbp)
	movl	$5, -8728(%rbp)
	movl	$5, -8732(%rbp)
	movl	$5, -8736(%rbp)
	movl	$5, -8740(%rbp)
	movl	$5, -8744(%rbp)
	movl	$5, -8748(%rbp)
	movl	$5, -8752(%rbp)
	movl	$5, -8756(%rbp)
	movl	$5, -8760(%rbp)
	movl	$5, -8764(%rbp)
	movl	$5, -8768(%rbp)
	movl	$5, -8772(%rbp)
	movl	$5, -8776(%rbp)
	movl	$5, -8780(%rbp)
	movl	$5, -8784(%rbp)
	movl	$5, -8788(%rbp)
	movl	$5, -8792(%rbp)
	movl	$5, -8796(%rbp)
	movl	$5, -8800(%rbp)
	movl	$5, -8804(%rbp)
	movl	$5, -8808(%rbp)
	movl	$5, -8812(%rbp)
	movl	$5, -8816(%rbp)
	movl	$5, -8820(%rbp)
	movl	$5, -8824(%rbp)
	movl	$5, -8828(%rbp)
	movl	$5, -8832(%rbp)
	movl	$5, -8836(%rbp)
	movl	$5, -8840(%rbp)
	movl	$5, -8844(%rbp)
	movl	$5, -8848(%rbp)
	movl	$5, -8852(%rbp)
	movl	$5, -8856(%rbp)
	movl	$5, -8860(%rbp)
	movl	$5, -8864(%rbp)
	movl	$5, -8868(%rbp)
	movl	$5, -8872(%rbp)
	movl	$5, -8876(%rbp)
	movl	$5, -8880(%rbp)
	movl	$5, -8884(%rbp)
	movl	$5, -8888(%rbp)
	movl	$5, -8892(%rbp)
	movl	$5, -8896(%rbp)
	movl	$5, -8900(%rbp)
	movl	$5, -8904(%rbp)
	movl	$5, -8908(%rbp)
	movl	$5, -8912(%rbp)
	movl	$5, -8916(%rbp)
	movl	$5, -8920(%rbp)
	movl	$5, -8924(%rbp)
	movl	$5, -8928(%rbp)
	movl	$5, -8932(%rbp)
	movl	$5, -8936(%rbp)
	movl	$5, -8940(%rbp)
	movl	$5, -8944(%rbp)
	movl	$5, -8948(%rbp)
	movl	$5, -8952(%rbp)
	movl	$5, -8956(%rbp)
	movl	$5, -8960(%rbp)
	movl	$5, -8964(%rbp)
	movl	$5, -8968(%rbp)
	movl	$5, -8972(%rbp)
	movl	$5, -8976(%rbp)
	movl	$5, -8980(%rbp)
	movl	$5, -8984(%rbp)
	movl	$5, -8988(%rbp)
	movl	$5, -8992(%rbp)
	movl	$5, -8996(%rbp)
	movl	$5, -9000(%rbp)
	movl	$5, -9004(%rbp)
	movl	$5, -9008(%rbp)
	movl	$5, -9012(%rbp)
	movl	$5, -9016(%rbp)
	movl	$5, -9020(%rbp)
	movl	$5, -9024(%rbp)
	movl	$5, -9028(%rbp)
	movl	$5, -9032(%rbp)
	movl	$5, -9036(%rbp)
	movl	$5, -9040(%rbp)
	movl	$5, -9044(%rbp)
	movl	$5, -9048(%rbp)
	movl	$5, -9052(%rbp)
	movl	$5, -9056(%rbp)
	movl	$5, -9060(%rbp)
	movl	$5, -9064(%rbp)
	movl	$5, -9068(%rbp)
	movl	$5, -9072(%rbp)
	movl	$5, -9076(%rbp)
	movl	$5, -9080(%rbp)
	movl	$5, -9084(%rbp)
	movl	$5, -9088(%rbp)
	movl	$5, -9092(%rbp)
	movl	$5, -9096(%rbp)
	movl	$5, -9100(%rbp)
	movl	$5, -9104(%rbp)
	movl	$5, -9108(%rbp)
	movl	$5, -9112(%rbp)
	movl	$5, -9116(%rbp)
	movl	$5, -9120(%rbp)
	movl	$5, -9124(%rbp)
	movl	$5, -9128(%rbp)
	movl	$5, -9132(%rbp)
	movl	$5, -9136(%rbp)
	movl	$5, -9140(%rbp)
	movl	$5, -9144(%rbp)
	movl	$5, -9148(%rbp)
	movl	$5, -9152(%rbp)
	movl	$5, -9156(%rbp)
	movl	$5, -9160(%rbp)
	movl	$5, -9164(%rbp)
	movl	$5, -9168(%rbp)
	movl	$5, -9172(%rbp)
	movl	$5, -9176(%rbp)
	movl	$5, -9180(%rbp)
	movl	$5, -9184(%rbp)
	movl	$5, -9188(%rbp)
	movl	$5, -9192(%rbp)
	movl	$5, -9196(%rbp)
	movl	$5, -9200(%rbp)
	movl	$5, -9204(%rbp)
	movl	$5, -9208(%rbp)
	movl	$5, -9212(%rbp)
	movl	$5, -9216(%rbp)
	movl	$5, -9220(%rbp)
	movl	$5, -9224(%rbp)
	movl	$5, -9228(%rbp)
	movl	$5, -9232(%rbp)
	movl	$5, -9236(%rbp)
	movl	$5, -9240(%rbp)
	movl	$5, -9244(%rbp)
	movl	$5, -9248(%rbp)
	movl	$5, -9252(%rbp)
	movl	$5, -9256(%rbp)
	movl	$5, -9260(%rbp)
	movl	$5, -9264(%rbp)
	movl	$5, -9268(%rbp)
	movl	$5, -9272(%rbp)
	movl	$5, -9276(%rbp)
	movl	$5, -9280(%rbp)
	movl	$5, -9284(%rbp)
	movl	$5, -9288(%rbp)
	movl	$5, -9292(%rbp)
	movl	$5, -9296(%rbp)
	movl	$5, -9300(%rbp)
	movl	$5, -9304(%rbp)
	movl	$5, -9308(%rbp)
	movl	$5, -9312(%rbp)
	movl	$5, -9316(%rbp)
	movl	$5, -9320(%rbp)
	movl	$5, -9324(%rbp)
	movl	$5, -9328(%rbp)
	movl	$5, -9332(%rbp)
	movl	$5, -9336(%rbp)
	movl	$5, -9340(%rbp)
	movl	$5, -9344(%rbp)
	movl	$5, -9348(%rbp)
	movl	$5, -9352(%rbp)
	movl	$5, -9356(%rbp)
	movl	$5, -9360(%rbp)
	movl	$5, -9364(%rbp)
	movl	$5, -9368(%rbp)
	movl	$5, -9372(%rbp)
	movl	$5, -9376(%rbp)
	movl	$5, -9380(%rbp)
	movl	$5, -9384(%rbp)
	movl	$5, -9388(%rbp)
	movl	$5, -9392(%rbp)
	movl	$5, -9396(%rbp)
	movl	$5, -9400(%rbp)
	movl	$5, -9404(%rbp)
	movl	$5, -9408(%rbp)
	movl	$5, -9412(%rbp)
	movl	$5, -9416(%rbp)
	movl	$5, -9420(%rbp)
	movl	$5, -9424(%rbp)
	movl	$5, -9428(%rbp)
	movl	$5, -9432(%rbp)
	movl	$5, -9436(%rbp)
	movl	$5, -9440(%rbp)
	movl	$5, -9444(%rbp)
	movl	$5, -9448(%rbp)
	movl	$5, -9452(%rbp)
	movl	$5, -9456(%rbp)
	movl	$5, -9460(%rbp)
	movl	$5, -9464(%rbp)
	movl	$5, -9468(%rbp)
	movl	$5, -9472(%rbp)
	movl	$5, -9476(%rbp)
	movl	$5, -9480(%rbp)
	movl	$5, -9484(%rbp)
	movl	$5, -9488(%rbp)
	movl	$5, -9492(%rbp)
	movl	$5, -9496(%rbp)
	movl	$5, -9500(%rbp)
	movl	$5, -9504(%rbp)
	movl	$5, -9508(%rbp)
	movl	$5, -9512(%rbp)
	movl	$5, -9516(%rbp)
	movl	$5, -9520(%rbp)
	movl	$5, -9524(%rbp)
	movl	$5, -9528(%rbp)
	movl	$5, -9532(%rbp)
	movl	$5, -9536(%rbp)
	movl	$5, -9540(%rbp)
	movl	$5, -9544(%rbp)
	movl	$5, -9548(%rbp)
	movl	$5, -9552(%rbp)
	movl	$5, -9556(%rbp)
	movl	$5, -9560(%rbp)
	movl	$5, -9564(%rbp)
	movl	$5, -9568(%rbp)
	movl	$5, -9572(%rbp)
	movl	$5, -9576(%rbp)
	movl	$5, -9580(%rbp)
	movl	$5, -9584(%rbp)
	movl	$5, -9588(%rbp)
	movl	$5, -9592(%rbp)
	movl	$5, -9596(%rbp)
	movl	$5, -9600(%rbp)
	movl	$5, -9604(%rbp)
	movl	$5, -9608(%rbp)
	movl	$5, -9612(%rbp)
	movl	$5, -9616(%rbp)
	movl	$5, -9620(%rbp)
	movl	$5, -9624(%rbp)
	movl	$5, -9628(%rbp)
	movl	$5, -9632(%rbp)
	movl	$5, -9636(%rbp)
	movl	$5, -9640(%rbp)
	movl	$5, -9644(%rbp)
	movl	$5, -9648(%rbp)
	movl	$5, -9652(%rbp)
	movl	$5, -9656(%rbp)
	movl	$5, -9660(%rbp)
	movl	$5, -9664(%rbp)
	movl	$5, -9668(%rbp)
	movl	$5, -9672(%rbp)
	movl	$5, -9676(%rbp)
	movl	$5, -9680(%rbp)
	movl	$5, -9684(%rbp)
	movl	$5, -9688(%rbp)
	movl	$5, -9692(%rbp)
	movl	$5, -9696(%rbp)
	movl	$5, -9700(%rbp)
	movl	$5, -9704(%rbp)
	movl	$5, -9708(%rbp)
	movl	$5, -9712(%rbp)
	movl	$5, -9716(%rbp)
	movl	$5, -9720(%rbp)
	movl	$5, -9724(%rbp)
	movl	$5, -9728(%rbp)
	movl	$5, -9732(%rbp)
	movl	$5, -9736(%rbp)
	movl	$5, -9740(%rbp)
	movl	$5, -9744(%rbp)
	movl	$5, -9748(%rbp)
	movl	$5, -9752(%rbp)
	movl	$5, -9756(%rbp)
	movl	$5, -9760(%rbp)
	movl	$5, -9764(%rbp)
	movl	$5, -9768(%rbp)
	movl	$5, -9772(%rbp)
	movl	$5, -9776(%rbp)
	movl	$5, -9780(%rbp)
	movl	$5, -9784(%rbp)
	movl	$5, -9788(%rbp)
	movl	$5, -9792(%rbp)
	movl	$5, -9796(%rbp)
	movl	$5, -9800(%rbp)
	movl	$5, -9804(%rbp)
	movl	$5, -9808(%rbp)
	movl	$5, -9812(%rbp)
	movl	$5, -9816(%rbp)
	movl	$5, -9820(%rbp)
	movl	$5, -9824(%rbp)
	movl	$5, -9828(%rbp)
	movl	$5, -9832(%rbp)
	movl	$5, -9836(%rbp)
	movl	$5, -9840(%rbp)
	movl	$5, -9844(%rbp)
	movl	$5, -9848(%rbp)
	movl	$5, -9852(%rbp)
	movl	$5, -9856(%rbp)
	movl	$5, -9860(%rbp)
	movl	$5, -9864(%rbp)
	movl	$5, -9868(%rbp)
	movl	$5, -9872(%rbp)
	movl	$5, -9876(%rbp)
	movl	$5, -9880(%rbp)
	movl	$5, -9884(%rbp)
	movl	$5, -9888(%rbp)
	movl	$5, -9892(%rbp)
	movl	$5, -9896(%rbp)
	movl	$5, -9900(%rbp)
	movl	$5, -9904(%rbp)
	movl	$5, -9908(%rbp)
	movl	$5, -9912(%rbp)
	movl	$5, -9916(%rbp)
	movl	$5, -9920(%rbp)
	movl	$5, -9924(%rbp)
	movl	$5, -9928(%rbp)
	movl	$5, -9932(%rbp)
	movl	$5, -9936(%rbp)
	movl	$5, -9940(%rbp)
	movl	$5, -9944(%rbp)
	movl	$5, -9948(%rbp)
	movl	$5, -9952(%rbp)
	movl	$5, -9956(%rbp)
	movl	$5, -9960(%rbp)
	movl	$5, -9964(%rbp)
	movl	$5, -9968(%rbp)
	movl	$5, -9972(%rbp)
	movl	$5, -9976(%rbp)
	movl	$5, -9980(%rbp)
	movl	$5, -9984(%rbp)
	movl	$5, -9988(%rbp)
	movl	$5, -9992(%rbp)
	movl	$5, -9996(%rbp)
	movl	$5, -10000(%rbp)
	movl	$5, -10004(%rbp)
	movl	$5, -10008(%rbp)
	movl	$5, -10012(%rbp)
	movl	$5, -10016(%rbp)
	movl	$5, -10020(%rbp)
	movl	$5, -10024(%rbp)
	movl	$5, -10028(%rbp)
	movl	$5, -10032(%rbp)
	movl	$5, -10036(%rbp)
	movl	$5, -10040(%rbp)
	movl	$5, -10044(%rbp)
	movl	$5, -10048(%rbp)
	movl	$5, -10052(%rbp)
	movl	$5, -10056(%rbp)
	movl	$5, -10060(%rbp)
	movl	$5, -10064(%rbp)
	movl	$5, -10068(%rbp)
	movl	$5, -10072(%rbp)
	movl	$5, -10076(%rbp)
	movl	$5, -10080(%rbp)
	movl	$5, -10084(%rbp)
	movl	$5, -10088(%rbp)
	movl	$5, -10092(%rbp)
	movl	$5, -10096(%rbp)
	movl	$5, -10100(%rbp)
	movl	$5, -10104(%rbp)
	movl	$5, -10108(%rbp)
	movl	$5, -10112(%rbp)
	movl	$5, -10116(%rbp)
	movl	$5, -10120(%rbp)
	movl	$5, -10124(%rbp)
	movl	$5, -10128(%rbp)
	movl	$5, -10132(%rbp)
	movl	$5, -10136(%rbp)
	movl	$5, -10140(%rbp)
	movl	$5, -10144(%rbp)
	movl	$5, -10148(%rbp)
	movl	$5, -10152(%rbp)
	movl	$5, -10156(%rbp)
	movl	$5, -10160(%rbp)
	movl	$5, -10164(%rbp)
	movl	$5, -10168(%rbp)
	movl	$5, -10172(%rbp)
	movl	$5, -10176(%rbp)
	movl	$5, -10180(%rbp)
	movl	$5, -10184(%rbp)
	movl	$5, -10188(%rbp)
	movl	$5, -10192(%rbp)
	movl	$5, -10196(%rbp)
	movl	$5, -10200(%rbp)
	movl	$5, -10204(%rbp)
	movl	$5, -10208(%rbp)
	movl	$5, -10212(%rbp)
	movl	$5, -10216(%rbp)
	movl	$5, -10220(%rbp)
	movl	$5, -10224(%rbp)
	movl	$5, -10228(%rbp)
	movl	$5, -10232(%rbp)
	movl	$5, -10236(%rbp)
	movl	$5, -10240(%rbp)
	movl	$5, -10244(%rbp)
	movl	$5, -10248(%rbp)
	movl	$5, -10252(%rbp)
	movl	$5, -10256(%rbp)
	movl	$5, -10260(%rbp)
	movl	$5, -10264(%rbp)
	movl	$5, -10268(%rbp)
	movl	$5, -10272(%rbp)
	movl	$5, -10276(%rbp)
	movl	$5, -10280(%rbp)
	movl	$5, -10284(%rbp)
	movl	$5, -10288(%rbp)
	movl	$5, -10292(%rbp)
	movl	$5, -10296(%rbp)
	movl	$5, -10300(%rbp)
	movl	$5, -10304(%rbp)
	movl	$5, -10308(%rbp)
	movl	$5, -10312(%rbp)
	movl	$5, -10316(%rbp)
	movl	$5, -10320(%rbp)
	movl	$5, -10324(%rbp)
	movl	$5, -10328(%rbp)
	movl	$5, -10332(%rbp)
	movl	$5, -10336(%rbp)
	movl	$5, -10340(%rbp)
	movl	$5, -10344(%rbp)
	movl	$5, -10348(%rbp)
	movl	$5, -10352(%rbp)
	movl	$5, -10356(%rbp)
	movl	$5, -10360(%rbp)
	movl	$5, -10364(%rbp)
	movl	$5, -10368(%rbp)
	movl	$5, -10372(%rbp)
	movl	$5, -10376(%rbp)
	movl	$5, -10380(%rbp)
	movl	$5, -10384(%rbp)
	movl	$5, -10388(%rbp)
	movl	$5, -10392(%rbp)
	movl	$5, -10396(%rbp)
	movl	$5, -10400(%rbp)
	movl	$5, -10404(%rbp)
	movl	$5, -10408(%rbp)
	movl	$5, -10412(%rbp)
	movl	$5, -10416(%rbp)
	movl	$5, -10420(%rbp)
	movl	$5, -10424(%rbp)
	movl	$5, -10428(%rbp)
	movl	$5, -10432(%rbp)
	movl	$5, -10436(%rbp)
	movl	$5, -10440(%rbp)
	movl	$5, -10444(%rbp)
	movl	$5, -10448(%rbp)
	movl	$5, -10452(%rbp)
	movl	$5, -10456(%rbp)
	movl	$5, -10460(%rbp)
	movl	$5, -10464(%rbp)
	movl	$5, -10468(%rbp)
	movl	$5, -10472(%rbp)
	movl	$5, -10476(%rbp)
	movl	$5, -10480(%rbp)
	movl	$5, -10484(%rbp)
	movl	$5, -10488(%rbp)
	movl	$5, -10492(%rbp)
	movl	$5, -10496(%rbp)
	movl	$5, -10500(%rbp)
	movl	$5, -10504(%rbp)
	movl	$5, -10508(%rbp)
	movl	$5, -10512(%rbp)
	movl	$5, -10516(%rbp)
	movl	$5, -10520(%rbp)
	movl	$5, -10524(%rbp)
	movl	$5, -10528(%rbp)
	movl	$5, -10532(%rbp)
	movl	$5, -10536(%rbp)
	movl	$5, -10540(%rbp)
	movl	$5, -10544(%rbp)
	movl	$5, -10548(%rbp)
	movl	$5, -10552(%rbp)
	movl	$5, -10556(%rbp)
	movl	$5, -10560(%rbp)
	movl	$5, -10564(%rbp)
	movl	$5, -10568(%rbp)
	movl	$5, -10572(%rbp)
	movl	$5, -10576(%rbp)
	movl	$5, -10580(%rbp)
	movl	$5, -10584(%rbp)
	movl	$5, -10588(%rbp)
	movl	$5, -10592(%rbp)
	movl	$5, -10596(%rbp)
	movl	$5, -10600(%rbp)
	movl	$5, -10604(%rbp)
	movl	$5, -10608(%rbp)
	movl	$5, -10612(%rbp)
	movl	$5, -10616(%rbp)
	movl	$5, -10620(%rbp)
	movl	$5, -10624(%rbp)
	movl	$5, -10628(%rbp)
	movl	$5, -10632(%rbp)
	movl	$5, -10636(%rbp)
	movl	$5, -10640(%rbp)
	movl	$5, -10644(%rbp)
	movl	$5, -10648(%rbp)
	movl	$5, -10652(%rbp)
	movl	$5, -10656(%rbp)
	movl	$5, -10660(%rbp)
	movl	$5, -10664(%rbp)
	movl	$5, -10668(%rbp)
	movl	$5, -10672(%rbp)
	movl	$5, -10676(%rbp)
	movl	$5, -10680(%rbp)
	movl	$5, -10684(%rbp)
	movl	$5, -10688(%rbp)
	movl	$5, -10692(%rbp)
	movl	$5, -10696(%rbp)
	movl	$5, -10700(%rbp)
	movl	$5, -10704(%rbp)
	movl	$5, -10708(%rbp)
	movl	$5, -10712(%rbp)
	movl	$5, -10716(%rbp)
	movl	$5, -10720(%rbp)
	movl	$5, -10724(%rbp)
	movl	$5, -10728(%rbp)
	movl	$5, -10732(%rbp)
	movl	$5, -10736(%rbp)
	movl	$5, -10740(%rbp)
	movl	$5, -10744(%rbp)
	movl	$5, -10748(%rbp)
	movl	$5, -10752(%rbp)
	movl	$5, -10756(%rbp)
	movl	$5, -10760(%rbp)
	movl	$5, -10764(%rbp)
	movl	$5, -10768(%rbp)
	movl	$5, -10772(%rbp)
	movl	$5, -10776(%rbp)
	movl	$5, -10780(%rbp)
	movl	$5, -10784(%rbp)
	movl	$5, -10788(%rbp)
	movl	$5, -10792(%rbp)
	movl	$5, -10796(%rbp)
	movl	$5, -10800(%rbp)
	movl	$5, -10804(%rbp)
	movl	$5, -10808(%rbp)
	movl	$5, -10812(%rbp)
	movl	$5, -10816(%rbp)
	movl	$5, -10820(%rbp)
	movl	$5, -10824(%rbp)
	movl	$5, -10828(%rbp)
	movl	$5, -10832(%rbp)
	movl	$5, -10836(%rbp)
	movl	$5, -10840(%rbp)
	movl	$5, -10844(%rbp)
	movl	$5, -10848(%rbp)
	movl	$5, -10852(%rbp)
	movl	$5, -10856(%rbp)
	movl	$5, -10860(%rbp)
	movl	$5, -10864(%rbp)
	movl	$5, -10868(%rbp)
	movl	$5, -10872(%rbp)
	movl	$5, -10876(%rbp)
	movl	$5, -10880(%rbp)
	movl	$5, -10884(%rbp)
	movl	$5, -10888(%rbp)
	movl	$5, -10892(%rbp)
	movl	$5, -10896(%rbp)
	movl	$5, -10900(%rbp)
	movl	$5, -10904(%rbp)
	movl	$5, -10908(%rbp)
	movl	$5, -10912(%rbp)
	movl	$5, -10916(%rbp)
	movl	$5, -10920(%rbp)
	movl	$5, -10924(%rbp)
	movl	$5, -10928(%rbp)
	movl	$5, -10932(%rbp)
	movl	$5, -10936(%rbp)
	movl	$5, -10940(%rbp)
	movl	$5, -10944(%rbp)
	movl	$5, -10948(%rbp)
	movl	$5, -10952(%rbp)
	movl	$5, -10956(%rbp)
	movl	$5, -10960(%rbp)
	movl	$5, -10964(%rbp)
	movl	$5, -10968(%rbp)
	movl	$5, -10972(%rbp)
	movl	$5, -10976(%rbp)
	movl	$5, -10980(%rbp)
	movl	$5, -10984(%rbp)
	movl	$5, -10988(%rbp)
	movl	$5, -10992(%rbp)
	movl	$5, -10996(%rbp)
	movl	$5, -11000(%rbp)
	movl	$5, -11004(%rbp)
	movl	$5, -11008(%rbp)
	movl	$5, -11012(%rbp)
	movl	$5, -11016(%rbp)
	movl	$5, -11020(%rbp)
	movl	$5, -11024(%rbp)
	movl	$5, -11028(%rbp)
	movl	$5, -11032(%rbp)
	movl	$5, -11036(%rbp)
	movl	$5, -11040(%rbp)
	movl	$5, -11044(%rbp)
	movl	$5, -11048(%rbp)
	movl	$5, -11052(%rbp)
	movl	$5, -11056(%rbp)
	movl	$5, -11060(%rbp)
	movl	$5, -11064(%rbp)
	movl	$5, -11068(%rbp)
	movl	$5, -11072(%rbp)
	movl	$5, -11076(%rbp)
	movl	$5, -11080(%rbp)
	movl	$5, -11084(%rbp)
	movl	$5, -11088(%rbp)
	movl	$5, -11092(%rbp)
	movl	$5, -11096(%rbp)
	movl	$5, -11100(%rbp)
	movl	$5, -11104(%rbp)
	movl	$5, -11108(%rbp)
	movl	$5, -11112(%rbp)
	movl	$5, -11116(%rbp)
	movl	$5, -11120(%rbp)
	movl	$5, -11124(%rbp)
	movl	$5, -11128(%rbp)
	movl	$5, -11132(%rbp)
	movl	$5, -11136(%rbp)
	movl	$5, -11140(%rbp)
	movl	$5, -11144(%rbp)
	movl	$5, -11148(%rbp)
	movl	$5, -11152(%rbp)
	movl	$5, -11156(%rbp)
	movl	$5, -11160(%rbp)
	movl	$5, -11164(%rbp)
	movl	$5, -11168(%rbp)
	movl	$5, -11172(%rbp)
	movl	$5, -11176(%rbp)
	movl	$5, -11180(%rbp)
	movl	$5, -11184(%rbp)
	movl	$5, -11188(%rbp)
	movl	$5, -11192(%rbp)
	movl	$5, -11196(%rbp)
	movl	$5, -11200(%rbp)
	movl	$5, -11204(%rbp)
	movl	$5, -11208(%rbp)
	movl	$5, -11212(%rbp)
	movl	$5, -11216(%rbp)
	movl	$5, -11220(%rbp)
	movl	$5, -11224(%rbp)
	movl	$5, -11228(%rbp)
	movl	$5, -11232(%rbp)
	movl	$5, -11236(%rbp)
	movl	$5, -11240(%rbp)
	movl	$5, -11244(%rbp)
	movl	$5, -11248(%rbp)
	movl	$5, -11252(%rbp)
	movl	$5, -11256(%rbp)
	movl	$5, -11260(%rbp)
	movl	$5, -11264(%rbp)
	movl	$5, -11268(%rbp)
	movl	$5, -11272(%rbp)
	movl	$5, -11276(%rbp)
	movl	$5, -11280(%rbp)
	movl	$5, -11284(%rbp)
	movl	$5, -11288(%rbp)
	movl	$5, -11292(%rbp)
	movl	$5, -11296(%rbp)
	movl	$5, -11300(%rbp)
	movl	$5, -11304(%rbp)
	movl	$5, -11308(%rbp)
	movl	$5, -11312(%rbp)
	movl	$5, -11316(%rbp)
	movl	$5, -11320(%rbp)
	movl	$5, -11324(%rbp)
	movl	$5, -11328(%rbp)
	movl	$5, -11332(%rbp)
	movl	$5, -11336(%rbp)
	movl	$5, -11340(%rbp)
	movl	$5, -11344(%rbp)
	movl	$5, -11348(%rbp)
	movl	$5, -11352(%rbp)
	movl	$5, -11356(%rbp)
	movl	$5, -11360(%rbp)
	movl	$5, -11364(%rbp)
	movl	$5, -11368(%rbp)
	movl	$5, -11372(%rbp)
	movl	$5, -11376(%rbp)
	movl	$5, -11380(%rbp)
	movl	$5, -11384(%rbp)
	movl	$5, -11388(%rbp)
	movl	$5, -11392(%rbp)
	movl	$5, -11396(%rbp)
	movl	$5, -11400(%rbp)
	movl	$5, -11404(%rbp)
	movl	$5, -11408(%rbp)
	movl	$5, -11412(%rbp)
	movl	$5, -11416(%rbp)
	movl	$5, -11420(%rbp)
	movl	$5, -11424(%rbp)
	movl	$5, -11428(%rbp)
	movl	$5, -11432(%rbp)
	movl	$5, -11436(%rbp)
	movl	$5, -11440(%rbp)
	movl	$5, -11444(%rbp)
	movl	$5, -11448(%rbp)
	movl	$5, -11452(%rbp)
	movl	$5, -11456(%rbp)
	movl	$5, -11460(%rbp)
	movl	$5, -11464(%rbp)
	movl	$5, -11468(%rbp)
	movl	$5, -11472(%rbp)
	movl	$5, -11476(%rbp)
	movl	$5, -11480(%rbp)
	movl	$5, -11484(%rbp)
	movl	$5, -11488(%rbp)
	movl	$5, -11492(%rbp)
	movl	$5, -11496(%rbp)
	movl	$5, -11500(%rbp)
	movl	$5, -11504(%rbp)
	movl	$5, -11508(%rbp)
	movl	$5, -11512(%rbp)
	movl	$5, -11516(%rbp)
	movl	$5, -11520(%rbp)
	movl	$5, -11524(%rbp)
	movl	$5, -11528(%rbp)
	movl	$5, -11532(%rbp)
	movl	$5, -11536(%rbp)
	movl	$5, -11540(%rbp)
	movl	$5, -11544(%rbp)
	movl	$5, -11548(%rbp)
	movl	$5, -11552(%rbp)
	movl	$5, -11556(%rbp)
	movl	$5, -11560(%rbp)
	movl	$5, -11564(%rbp)
	movl	$5, -11568(%rbp)
	movl	$5, -11572(%rbp)
	movl	$5, -11576(%rbp)
	movl	$5, -11580(%rbp)
	movl	$5, -11584(%rbp)
	movl	$5, -11588(%rbp)
	movl	$5, -11592(%rbp)
	movl	$5, -11596(%rbp)
	movl	$5, -11600(%rbp)
	movl	$5, -11604(%rbp)
	movl	$5, -11608(%rbp)
	movl	$5, -11612(%rbp)
	movl	$5, -11616(%rbp)
	movl	$5, -11620(%rbp)
	movl	$5, -11624(%rbp)
	movl	$5, -11628(%rbp)
	movl	$5, -11632(%rbp)
	movl	$5, -11636(%rbp)
	movl	$5, -11640(%rbp)
	movl	$5, -11644(%rbp)
	movl	$5, -11648(%rbp)
	movl	$5, -11652(%rbp)
	movl	$5, -11656(%rbp)
	movl	$5, -11660(%rbp)
	movl	$5, -11664(%rbp)
	movl	$5, -11668(%rbp)
	movl	$5, -11672(%rbp)
	movl	$5, -11676(%rbp)
	movl	$5, -11680(%rbp)
	movl	$5, -11684(%rbp)
	movl	$5, -11688(%rbp)
	movl	$5, -11692(%rbp)
	movl	$5, -11696(%rbp)
	movl	$5, -11700(%rbp)
	movl	$5, -11704(%rbp)
	movl	$5, -11708(%rbp)
	movl	$5, -11712(%rbp)
	movl	$5, -11716(%rbp)
	movl	$5, -11720(%rbp)
	movl	$5, -11724(%rbp)
	movl	$5, -11728(%rbp)
	movl	$5, -11732(%rbp)
	movl	$5, -11736(%rbp)
	movl	$5, -11740(%rbp)
	movl	$5, -11744(%rbp)
	movl	$5, -11748(%rbp)
	movl	$5, -11752(%rbp)
	movl	$5, -11756(%rbp)
	movl	$5, -11760(%rbp)
	movl	$5, -11764(%rbp)
	movl	$5, -11768(%rbp)
	movl	$5, -11772(%rbp)
	movl	$5, -11776(%rbp)
	movl	$5, -11780(%rbp)
	movl	$5, -11784(%rbp)
	movl	$5, -11788(%rbp)
	movl	$5, -11792(%rbp)
	movl	$5, -11796(%rbp)
	movl	$5, -11800(%rbp)
	movl	$5, -11804(%rbp)
	movl	$5, -11808(%rbp)
	movl	$5, -11812(%rbp)
	movl	$5, -11816(%rbp)
	movl	$5, -11820(%rbp)
	movl	$5, -11824(%rbp)
	movl	$5, -11828(%rbp)
	movl	$5, -11832(%rbp)
	movl	$5, -11836(%rbp)
	movl	$5, -11840(%rbp)
	movl	$5, -11844(%rbp)
	movl	$5, -11848(%rbp)
	movl	$5, -11852(%rbp)
	movl	$5, -11856(%rbp)
	movl	$5, -11860(%rbp)
	movl	$5, -11864(%rbp)
	movl	$5, -11868(%rbp)
	movl	$5, -11872(%rbp)
	movl	$5, -11876(%rbp)
	movl	$5, -11880(%rbp)
	movl	$5, -11884(%rbp)
	movl	$5, -11888(%rbp)
	movl	$5, -11892(%rbp)
	movl	$5, -11896(%rbp)
	movl	$5, -11900(%rbp)
	movl	$5, -11904(%rbp)
	movl	$5, -11908(%rbp)
	movl	$5, -11912(%rbp)
	movl	$5, -11916(%rbp)
	movl	$5, -11920(%rbp)
	movl	$5, -11924(%rbp)
	movl	$5, -11928(%rbp)
	movl	$5, -11932(%rbp)
	movl	$5, -11936(%rbp)
	movl	$5, -11940(%rbp)
	movl	$5, -11944(%rbp)
	movl	$5, -11948(%rbp)
	movl	$5, -11952(%rbp)
	movl	$5, -11956(%rbp)
	movl	$5, -11960(%rbp)
	movl	$5, -11964(%rbp)
	movl	$5, -11968(%rbp)
	movl	$5, -11972(%rbp)
	movl	$5, -11976(%rbp)
	movl	$5, -11980(%rbp)
	movl	$5, -11984(%rbp)
	movl	$5, -11988(%rbp)
	movl	$5, -11992(%rbp)
	movl	$5, -11996(%rbp)
	movl	$5, -12000(%rbp)
	movl	$5, -12004(%rbp)
	movl	$5, -12008(%rbp)
	movl	$5, -12012(%rbp)
	movl	$5, -12016(%rbp)
	movl	$5, -12020(%rbp)
	movl	$5, -12024(%rbp)
	movl	$5, -12028(%rbp)
	movl	$5, -12032(%rbp)
	movl	$5, -12036(%rbp)
	movl	$5, -12040(%rbp)
	movl	$5, -12044(%rbp)
	movl	$5, -12048(%rbp)
	movl	$5, -12052(%rbp)
	movl	$5, -12056(%rbp)
	movl	$5, -12060(%rbp)
	movl	$5, -12064(%rbp)
	movl	$5, -12068(%rbp)
	movl	$5, -12072(%rbp)
	movl	$5, -12076(%rbp)
	movl	$5, -12080(%rbp)
	movl	$5, -12084(%rbp)
	movl	$5, -12088(%rbp)
	movl	$5, -12092(%rbp)
	movl	$5, -12096(%rbp)
	movl	$5, -12100(%rbp)
	movl	$5, -12104(%rbp)
	movl	$5, -12108(%rbp)
	movl	$5, -12112(%rbp)
	movl	$5, -12116(%rbp)
	movl	$5, -12120(%rbp)
	movl	$5, -12124(%rbp)
	movl	$5, -12128(%rbp)
	movl	$5, -12132(%rbp)
	movl	$5, -12136(%rbp)
	movl	$5, -12140(%rbp)
	movl	$5, -12144(%rbp)
	movl	$5, -12148(%rbp)
	movl	$5, -12152(%rbp)
	movl	$5, -12156(%rbp)
	movl	$5, -12160(%rbp)
	movl	$5, -12164(%rbp)
	movl	$5, -12168(%rbp)
	movl	$5, -12172(%rbp)
	movl	$5, -12176(%rbp)
	movl	$5, -12180(%rbp)
	movl	$5, -12184(%rbp)
	movl	$5, -12188(%rbp)
	movl	$5, -12192(%rbp)
	movl	$5, -12196(%rbp)
	movl	$5, -12200(%rbp)
	movl	$5, -12204(%rbp)
	movl	$5, -12208(%rbp)
	movl	$5, -12212(%rbp)
	movl	$5, -12216(%rbp)
	movl	$5, -12220(%rbp)
	movl	$5, -12224(%rbp)
	movl	$5, -12228(%rbp)
	movl	$5, -12232(%rbp)
	movl	$5, -12236(%rbp)
	movl	$5, -12240(%rbp)
	movl	$5, -12244(%rbp)
	movl	$5, -12248(%rbp)
	movl	$5, -12252(%rbp)
	movl	$5, -12256(%rbp)
	movl	$5, -12260(%rbp)
	movl	$5, -12264(%rbp)
	movl	$5, -12268(%rbp)
	movl	$5, -12272(%rbp)
	movl	$5, -12276(%rbp)
	movl	$5, -12280(%rbp)
	movl	$5, -12284(%rbp)
	movl	$5, -12288(%rbp)
	movl	$5, -12292(%rbp)
	movl	$5, -12296(%rbp)
	movl	$5, -12300(%rbp)
	movl	$5, -12304(%rbp)
	movl	$5, -12308(%rbp)
	movl	$5, -12312(%rbp)
	movl	$5, -12316(%rbp)
	movl	$5, -12320(%rbp)
	movl	$5, -12324(%rbp)
	movl	$5, -12328(%rbp)
	movl	$5, -12332(%rbp)
	movl	$5, -12336(%rbp)
	movl	$5, -12340(%rbp)
	movl	$5, -12344(%rbp)
	movl	$5, -12348(%rbp)
	movl	$5, -12352(%rbp)
	movl	$5, -12356(%rbp)
	movl	$5, -12360(%rbp)
	movl	$5, -12364(%rbp)
	movl	$5, -12368(%rbp)
	movl	$5, -12372(%rbp)
	movl	$5, -12376(%rbp)
	movl	$5, -12380(%rbp)
	movl	$5, -12384(%rbp)
	movl	$5, -12388(%rbp)
	movl	$5, -12392(%rbp)
	movl	$5, -12396(%rbp)
	movl	$5, -12400(%rbp)
	movl	$5, -12404(%rbp)
	movl	$5, -12408(%rbp)
	movl	$5, -12412(%rbp)
	movl	$5, -12416(%rbp)
	movl	$5, -12420(%rbp)
	movl	$5, -12424(%rbp)
	movl	$5, -12428(%rbp)
	movl	$5, -12432(%rbp)
	movl	$5, -12436(%rbp)
	movl	$5, -12440(%rbp)
	movl	$5, -12444(%rbp)
	movl	$5, -12448(%rbp)
	movl	$5, -12452(%rbp)
	movl	$5, -12456(%rbp)
	movl	$5, -12460(%rbp)
	movl	$5, -12464(%rbp)
	movl	$5, -12468(%rbp)
	movl	$5, -12472(%rbp)
	movl	$5, -12476(%rbp)
	movl	$5, -12480(%rbp)
	movl	$5, -12484(%rbp)
	movl	$5, -12488(%rbp)
	movl	$5, -12492(%rbp)
	movl	$5, -12496(%rbp)
	movl	$5, -12500(%rbp)
	movl	$5, -12504(%rbp)
	movl	$5, -12508(%rbp)
	movl	$5, -12512(%rbp)
	movl	$5, -12516(%rbp)
	movl	$5, -12520(%rbp)
	movl	$5, -12524(%rbp)
	movl	$5, -12528(%rbp)
	movl	$5, -12532(%rbp)
	movl	$5, -12536(%rbp)
	movl	$5, -12540(%rbp)
	movl	$5, -12544(%rbp)
	movl	$5, -12548(%rbp)
	movl	$5, -12552(%rbp)
	movl	$5, -12556(%rbp)
	movl	$5, -12560(%rbp)
	movl	$5, -12564(%rbp)
	movl	$5, -12568(%rbp)
	movl	$5, -12572(%rbp)
	movl	$5, -12576(%rbp)
	movl	$5, -12580(%rbp)
	movl	$5, -12584(%rbp)
	movl	$5, -12588(%rbp)
	movl	$5, -12592(%rbp)
	movl	$5, -12596(%rbp)
	movl	$5, -12600(%rbp)
	movl	$5, -12604(%rbp)
	movl	$5, -12608(%rbp)
	movl	$5, -12612(%rbp)
	movl	$5, -12616(%rbp)
	movl	$5, -12620(%rbp)
	movl	$5, -12624(%rbp)
	movl	$5, -12628(%rbp)
	movl	$5, -12632(%rbp)
	movl	$5, -12636(%rbp)
	movl	$5, -12640(%rbp)
	movl	$5, -12644(%rbp)
	movl	$5, -12648(%rbp)
	movl	$5, -12652(%rbp)
	movl	$5, -12656(%rbp)
	movl	$5, -12660(%rbp)
	movl	$5, -12664(%rbp)
	movl	$5, -12668(%rbp)
	movl	$5, -12672(%rbp)
	movl	$5, -12676(%rbp)
	movl	$5, -12680(%rbp)
	movl	$5, -12684(%rbp)
	movl	$5, -12688(%rbp)
	movl	$5, -12692(%rbp)
	movl	$5, -12696(%rbp)
	movl	$5, -12700(%rbp)
	movl	$5, -12704(%rbp)
	movl	$5, -12708(%rbp)
	movl	$5, -12712(%rbp)
	movl	$5, -12716(%rbp)
	movl	$5, -12720(%rbp)
	movl	$5, -12724(%rbp)
	movl	$5, -12728(%rbp)
	movl	$5, -12732(%rbp)
	movl	$5, -12736(%rbp)
	movl	$5, -12740(%rbp)
	movl	$5, -12744(%rbp)
	movl	$5, -12748(%rbp)
	movl	$5, -12752(%rbp)
	movl	$5, -12756(%rbp)
	movl	$5, -12760(%rbp)
	movl	$5, -12764(%rbp)
	movl	$5, -12768(%rbp)
	movl	$5, -12772(%rbp)
	movl	$5, -12776(%rbp)
	movl	$5, -12780(%rbp)
	movl	$5, -12784(%rbp)
	movl	$5, -12788(%rbp)
	movl	$5, -12792(%rbp)
	movl	$5, -12796(%rbp)
	movl	$5, -12800(%rbp)
	movl	$5, -12804(%rbp)
	movl	$5, -12808(%rbp)
	movl	$5, -12812(%rbp)
	movl	$5, -12816(%rbp)
	movl	$5, -12820(%rbp)
	movl	$5, -12824(%rbp)
	movl	$5, -12828(%rbp)
	movl	$5, -12832(%rbp)
	movl	$5, -12836(%rbp)
	movl	$5, -12840(%rbp)
	movl	$5, -12844(%rbp)
	movl	$5, -12848(%rbp)
	movl	$5, -12852(%rbp)
	movl	$5, -12856(%rbp)
	movl	$5, -12860(%rbp)
	movl	$5, -12864(%rbp)
	movl	$5, -12868(%rbp)
	movl	$5, -12872(%rbp)
	movl	$5, -12876(%rbp)
	movl	$5, -12880(%rbp)
	movl	$5, -12884(%rbp)
	movl	$5, -12888(%rbp)
	movl	$5, -12892(%rbp)
	movl	$5, -12896(%rbp)
	movl	$5, -12900(%rbp)
	movl	$5, -12904(%rbp)
	movl	$5, -12908(%rbp)
	movl	$5, -12912(%rbp)
	movl	$5, -12916(%rbp)
	movl	$5, -12920(%rbp)
	movl	$5, -12924(%rbp)
	movl	$5, -12928(%rbp)
	movl	$5, -12932(%rbp)
	movl	$5, -12936(%rbp)
	movl	$5, -12940(%rbp)
	movl	$5, -12944(%rbp)
	movl	$5, -12948(%rbp)
	movl	$5, -12952(%rbp)
	movl	$5, -12956(%rbp)
	movl	$5, -12960(%rbp)
	movl	$5, -12964(%rbp)
	movl	$5, -12968(%rbp)
	movl	$5, -12972(%rbp)
	movl	$5, -12976(%rbp)
	movl	$5, -12980(%rbp)
	movl	$5, -12984(%rbp)
	movl	$5, -12988(%rbp)
	movl	$5, -12992(%rbp)
	movl	$5, -12996(%rbp)
	movl	$5, -13000(%rbp)
	movl	$5, -13004(%rbp)
	movl	$5, -13008(%rbp)
	movl	$5, -13012(%rbp)
	movl	$5, -13016(%rbp)
	movl	$5, -13020(%rbp)
	movl	$5, -13024(%rbp)
	movl	$5, -13028(%rbp)
	movl	$5, -13032(%rbp)
	movl	$5, -13036(%rbp)
	movl	$5, -13040(%rbp)
	movl	$5, -13044(%rbp)
	movl	$5, -13048(%rbp)
	movl	$5, -13052(%rbp)
	movl	$5, -13056(%rbp)
	movl	$5, -13060(%rbp)
	movl	$5, -13064(%rbp)
	movl	$5, -13068(%rbp)
	movl	$5, -13072(%rbp)
	movl	$5, -13076(%rbp)
	movl	$5, -13080(%rbp)
	movl	$5, -13084(%rbp)
	movl	$5, -13088(%rbp)
	movl	$5, -13092(%rbp)
	movl	$5, -13096(%rbp)
	movl	$5, -13100(%rbp)
	movl	$5, -13104(%rbp)
	movl	$5, -13108(%rbp)
	movl	$5, -13112(%rbp)
	movl	$5, -13116(%rbp)
	movl	$5, -13120(%rbp)
	movl	$5, -13124(%rbp)
	movl	$5, -13128(%rbp)
	movl	$5, -13132(%rbp)
	movl	$5, -13136(%rbp)
	movl	$5, -13140(%rbp)
	movl	$5, -13144(%rbp)
	movl	$5, -13148(%rbp)
	movl	$5, -13152(%rbp)
	movl	$5, -13156(%rbp)
	movl	$5, -13160(%rbp)
	movl	$5, -13164(%rbp)
	movl	$5, -13168(%rbp)
	movl	$5, -13172(%rbp)
	movl	$5, -13176(%rbp)
	movl	$5, -13180(%rbp)
	movl	$5, -13184(%rbp)
	movl	$5, -13188(%rbp)
	movl	$5, -13192(%rbp)
	movl	$5, -13196(%rbp)
	movl	$5, -13200(%rbp)
	movl	$5, -13204(%rbp)
	movl	$5, -13208(%rbp)
	movl	$5, -13212(%rbp)
	movl	$5, -13216(%rbp)
	movl	$5, -13220(%rbp)
	movl	$5, -13224(%rbp)
	movl	$5, -13228(%rbp)
	movl	$5, -13232(%rbp)
	movl	$5, -13236(%rbp)
	movl	$5, -13240(%rbp)
	movl	$5, -13244(%rbp)
	movl	$5, -13248(%rbp)
	movl	$5, -13252(%rbp)
	movl	$5, -13256(%rbp)
	movl	$5, -13260(%rbp)
	movl	$5, -13264(%rbp)
	movl	$5, -13268(%rbp)
	movl	$5, -13272(%rbp)
	movl	$5, -13276(%rbp)
	movl	$5, -13280(%rbp)
	movl	$5, -13284(%rbp)
	movl	$5, -13288(%rbp)
	movl	$5, -13292(%rbp)
	movl	$5, -13296(%rbp)
	movl	$5, -13300(%rbp)
	movl	$5, -13304(%rbp)
	movl	$5, -13308(%rbp)
	movl	$5, -13312(%rbp)
	movl	$5, -13316(%rbp)
	movl	$5, -13320(%rbp)
	movl	$5, -13324(%rbp)
	movl	$5, -13328(%rbp)
	movl	$5, -13332(%rbp)
	movl	$5, -13336(%rbp)
	movl	$5, -13340(%rbp)
	movl	$5, -13344(%rbp)
	movl	$5, -13348(%rbp)
	movl	$5, -13352(%rbp)
	movl	$5, -13356(%rbp)
	movl	$5, -13360(%rbp)
	movl	$5, -13364(%rbp)
	movl	$5, -13368(%rbp)
	movl	$5, -13372(%rbp)
	movl	$5, -13376(%rbp)
	movl	$5, -13380(%rbp)
	movl	$5, -13384(%rbp)
	movl	$5, -13388(%rbp)
	movl	$5, -13392(%rbp)
	movl	$5, -13396(%rbp)
	movl	$5, -13400(%rbp)
	movl	$5, -13404(%rbp)
	movl	$5, -13408(%rbp)
	movl	$5, -13412(%rbp)
	movl	$5, -13416(%rbp)
	movl	$5, -13420(%rbp)
	movl	$5, -13424(%rbp)
	movl	$5, -13428(%rbp)
	movl	$5, -13432(%rbp)
	movl	$5, -13436(%rbp)
	movl	$5, -13440(%rbp)
	movl	$5, -13444(%rbp)
	movl	$5, -13448(%rbp)
	movl	$5, -13452(%rbp)
	movl	$5, -13456(%rbp)
	movl	$5, -13460(%rbp)
	movl	$5, -13464(%rbp)
	movl	$5, -13468(%rbp)
	movl	$5, -13472(%rbp)
	movl	$5, -13476(%rbp)
	movl	$5, -13480(%rbp)
	movl	$5, -13484(%rbp)
	movl	$5, -13488(%rbp)
	movl	$5, -13492(%rbp)
	movl	$5, -13496(%rbp)
	movl	$5, -13500(%rbp)
	movl	$5, -13504(%rbp)
	movl	$5, -13508(%rbp)
	movl	$5, -13512(%rbp)
	movl	$5, -13516(%rbp)
	movl	$5, -13520(%rbp)
	movl	$5, -13524(%rbp)
	movl	$5, -13528(%rbp)
	movl	$5, -13532(%rbp)
	movl	$5, -13536(%rbp)
	movl	$5, -13540(%rbp)
	movl	$5, -13544(%rbp)
	movl	$5, -13548(%rbp)
	movl	$5, -13552(%rbp)
	movl	$5, -13556(%rbp)
	movl	$5, -13560(%rbp)
	movl	$5, -13564(%rbp)
	movl	$5, -13568(%rbp)
	movl	$5, -13572(%rbp)
	movl	$5, -13576(%rbp)
	movl	$5, -13580(%rbp)
	movl	$5, -13584(%rbp)
	movl	$5, -13588(%rbp)
	movl	$5, -13592(%rbp)
	movl	$5, -13596(%rbp)
	movl	$5, -13600(%rbp)
	movl	$5, -13604(%rbp)
	movl	$5, -13608(%rbp)
	movl	$5, -13612(%rbp)
	movl	$5, -13616(%rbp)
	movl	$5, -13620(%rbp)
	movl	$5, -13624(%rbp)
	movl	$5, -13628(%rbp)
	movl	$5, -13632(%rbp)
	movl	$5, -13636(%rbp)
	movl	$5, -13640(%rbp)
	movl	$5, -13644(%rbp)
	movl	$5, -13648(%rbp)
	movl	$5, -13652(%rbp)
	movl	$5, -13656(%rbp)
	movl	$5, -13660(%rbp)
	movl	$5, -13664(%rbp)
	movl	$5, -13668(%rbp)
	movl	$5, -13672(%rbp)
	movl	$5, -13676(%rbp)
	movl	$5, -13680(%rbp)
	movl	$5, -13684(%rbp)
	movl	$5, -13688(%rbp)
	movl	$5, -13692(%rbp)
	movl	$5, -13696(%rbp)
	movl	$5, -13700(%rbp)
	movl	$5, -13704(%rbp)
	movl	$5, -13708(%rbp)
	movl	$5, -13712(%rbp)
	movl	$5, -13716(%rbp)
	movl	$5, -13720(%rbp)
	movl	$5, -13724(%rbp)
	movl	$5, -13728(%rbp)
	movl	$5, -13732(%rbp)
	movl	$5, -13736(%rbp)
	movl	$5, -13740(%rbp)
	movl	$5, -13744(%rbp)
	movl	$5, -13748(%rbp)
	movl	$5, -13752(%rbp)
	movl	$5, -13756(%rbp)
	movl	$5, -13760(%rbp)
	movl	$5, -13764(%rbp)
	movl	$5, -13768(%rbp)
	movl	$5, -13772(%rbp)
	movl	$5, -13776(%rbp)
	movl	$5, -13780(%rbp)
	movl	$5, -13784(%rbp)
	movl	$5, -13788(%rbp)
	movl	$5, -13792(%rbp)
	movl	$5, -13796(%rbp)
	movl	$5, -13800(%rbp)
	movl	$5, -13804(%rbp)
	movl	$5, -13808(%rbp)
	movl	$5, -13812(%rbp)
	movl	$5, -13816(%rbp)
	movl	$5, -13820(%rbp)
	movl	$5, -13824(%rbp)
	movl	$5, -13828(%rbp)
	movl	$5, -13832(%rbp)
	movl	$5, -13836(%rbp)
	movl	$5, -13840(%rbp)
	movl	$5, -13844(%rbp)
	movl	$5, -13848(%rbp)
	movl	$5, -13852(%rbp)
	movl	$5, -13856(%rbp)
	movl	$5, -13860(%rbp)
	movl	$5, -13864(%rbp)
	movl	$5, -13868(%rbp)
	movl	$5, -13872(%rbp)
	movl	$5, -13876(%rbp)
	movl	$5, -13880(%rbp)
	movl	$5, -13884(%rbp)
	movl	$5, -13888(%rbp)
	movl	$5, -13892(%rbp)
	movl	$5, -13896(%rbp)
	movl	$5, -13900(%rbp)
	movl	$5, -13904(%rbp)
	movl	$5, -13908(%rbp)
	movl	$5, -13912(%rbp)
	movl	$5, -13916(%rbp)
	movl	$5, -13920(%rbp)
	movl	$5, -13924(%rbp)
	movl	$5, -13928(%rbp)
	movl	$5, -13932(%rbp)
	movl	$5, -13936(%rbp)
	movl	$5, -13940(%rbp)
	movl	$5, -13944(%rbp)
	movl	$5, -13948(%rbp)
	movl	$5, -13952(%rbp)
	movl	$5, -13956(%rbp)
	movl	$5, -13960(%rbp)
	movl	$5, -13964(%rbp)
	movl	$5, -13968(%rbp)
	movl	$5, -13972(%rbp)
	movl	$5, -13976(%rbp)
	movl	$5, -13980(%rbp)
	movl	$5, -13984(%rbp)
	movl	$5, -13988(%rbp)
	movl	$5, -13992(%rbp)
	movl	$5, -13996(%rbp)
	movl	$5, -14000(%rbp)
	movl	$5, -14004(%rbp)
	movl	$5, -14008(%rbp)
	movl	$5, -14012(%rbp)
	movl	$5, -14016(%rbp)
	movl	$5, -14020(%rbp)
	movl	$5, -14024(%rbp)
	movl	$5, -14028(%rbp)
	movl	$5, -14032(%rbp)
	movl	$5, -14036(%rbp)
	movl	$5, -14040(%rbp)
	movl	$5, -14044(%rbp)
	movl	$5, -14048(%rbp)
	movl	$5, -14052(%rbp)
	movl	$5, -14056(%rbp)
	movl	$5, -14060(%rbp)
	movl	$5, -14064(%rbp)
	movl	$5, -14068(%rbp)
	movl	$5, -14072(%rbp)
	movl	$5, -14076(%rbp)
	movl	$5, -14080(%rbp)
	movl	$5, -14084(%rbp)
	movl	$5, -14088(%rbp)
	movl	$5, -14092(%rbp)
	movl	$5, -14096(%rbp)
	movl	$5, -14100(%rbp)
	movl	$5, -14104(%rbp)
	movl	$5, -14108(%rbp)
	movl	$5, -14112(%rbp)
	movl	$5, -14116(%rbp)
	movl	$5, -14120(%rbp)
	movl	$5, -14124(%rbp)
	movl	$5, -14128(%rbp)
	movl	$5, -14132(%rbp)
	movl	$5, -14136(%rbp)
	movl	$5, -14140(%rbp)
	movl	$5, -14144(%rbp)
	movl	$5, -14148(%rbp)
	movl	$5, -14152(%rbp)
	movl	$5, -14156(%rbp)
	movl	$5, -14160(%rbp)
	movl	$5, -14164(%rbp)
	movl	$5, -14168(%rbp)
	movl	$5, -14172(%rbp)
	movl	$5, -14176(%rbp)
	movl	$5, -14180(%rbp)
	movl	$5, -14184(%rbp)
	movl	$5, -14188(%rbp)
	movl	$5, -14192(%rbp)
	movl	$5, -14196(%rbp)
	movl	$5, -14200(%rbp)
	movl	$5, -14204(%rbp)
	movl	$5, -14208(%rbp)
	movl	$5, -14212(%rbp)
	movl	$5, -14216(%rbp)
	movl	$5, -14220(%rbp)
	movl	$5, -14224(%rbp)
	movl	$5, -14228(%rbp)
	movl	$5, -14232(%rbp)
	movl	$5, -14236(%rbp)
	movl	$5, -14240(%rbp)
	movl	$5, -14244(%rbp)
	movl	$5, -14248(%rbp)
	movl	$5, -14252(%rbp)
	movl	$5, -14256(%rbp)
	movl	$5, -14260(%rbp)
	movl	$5, -14264(%rbp)
	movl	$5, -14268(%rbp)
	movl	$5, -14272(%rbp)
	movl	$5, -14276(%rbp)
	movl	$5, -14280(%rbp)
	movl	$5, -14284(%rbp)
	movl	$5, -14288(%rbp)
	movl	$5, -14292(%rbp)
	movl	$5, -14296(%rbp)
	movl	$5, -14300(%rbp)
	movl	$5, -14304(%rbp)
	movl	$5, -14308(%rbp)
	movl	$5, -14312(%rbp)
	movl	$5, -14316(%rbp)
	movl	$5, -14320(%rbp)
	movl	$5, -14324(%rbp)
	movl	$5, -14328(%rbp)
	movl	$5, -14332(%rbp)
	movl	$5, -14336(%rbp)
	movl	$5, -14340(%rbp)
	movl	$5, -14344(%rbp)
	movl	$5, -14348(%rbp)
	movl	$5, -14352(%rbp)
	movl	$5, -14356(%rbp)
	movl	$5, -14360(%rbp)
	movl	$5, -14364(%rbp)
	movl	$5, -14368(%rbp)
	movl	$5, -14372(%rbp)
	movl	$5, -14376(%rbp)
	movl	$5, -14380(%rbp)
	movl	$5, -14384(%rbp)
	movl	$5, -14388(%rbp)
	movl	$5, -14392(%rbp)
	movl	$5, -14396(%rbp)
	movl	$5, -14400(%rbp)
	movl	$5, -14404(%rbp)
	movl	$5, -14408(%rbp)
	movl	$5, -14412(%rbp)
	movl	$5, -14416(%rbp)
	movl	$5, -14420(%rbp)
	movl	$5, -14424(%rbp)
	movl	$5, -14428(%rbp)
	movl	$5, -14432(%rbp)
	movl	$5, -14436(%rbp)
	movl	$5, -14440(%rbp)
	movl	$5, -14444(%rbp)
	movl	$5, -14448(%rbp)
	movl	$5, -14452(%rbp)
	movl	$5, -14456(%rbp)
	movl	$5, -14460(%rbp)
	movl	$5, -14464(%rbp)
	movl	$5, -14468(%rbp)
	movl	$5, -14472(%rbp)
	movl	$5, -14476(%rbp)
	movl	$5, -14480(%rbp)
	movl	$5, -14484(%rbp)
	movl	$5, -14488(%rbp)
	movl	$5, -14492(%rbp)
	movl	$5, -14496(%rbp)
	movl	$5, -14500(%rbp)
	movl	$5, -14504(%rbp)
	movl	$5, -14508(%rbp)
	movl	$5, -14512(%rbp)
	movl	$5, -14516(%rbp)
	movl	$5, -14520(%rbp)
	movl	$5, -14524(%rbp)
	movl	$5, -14528(%rbp)
	movl	$5, -14532(%rbp)
	movl	$5, -14536(%rbp)
	movl	$5, -14540(%rbp)
	movl	$5, -14544(%rbp)
	movl	$5, -14548(%rbp)
	movl	$5, -14552(%rbp)
	movl	$5, -14556(%rbp)
	movl	$5, -14560(%rbp)
	movl	$5, -14564(%rbp)
	movl	$5, -14568(%rbp)
	movl	$5, -14572(%rbp)
	movl	$5, -14576(%rbp)
	movl	$5, -14580(%rbp)
	movl	$5, -14584(%rbp)
	movl	$5, -14588(%rbp)
	movl	$5, -14592(%rbp)
	movl	$5, -14596(%rbp)
	movl	$5, -14600(%rbp)
	movl	$5, -14604(%rbp)
	movl	$5, -14608(%rbp)
	movl	$5, -14612(%rbp)
	movl	$5, -14616(%rbp)
	movl	$5, -14620(%rbp)
	movl	$5, -14624(%rbp)
	movl	$5, -14628(%rbp)
	movl	$5, -14632(%rbp)
	movl	$5, -14636(%rbp)
	movl	$5, -14640(%rbp)
	movl	$5, -14644(%rbp)
	movl	$5, -14648(%rbp)
	movl	$5, -14652(%rbp)
	movl	$5, -14656(%rbp)
	movl	$5, -14660(%rbp)
	movl	$5, -14664(%rbp)
	movl	$5, -14668(%rbp)
	movl	$5, -14672(%rbp)
	movl	$5, -14676(%rbp)
	movl	$5, -14680(%rbp)
	movl	$5, -14684(%rbp)
	movl	$5, -14688(%rbp)
	movl	$5, -14692(%rbp)
	movl	$5, -14696(%rbp)
	movl	$5, -14700(%rbp)
	movl	$5, -14704(%rbp)
	movl	$5, -14708(%rbp)
	movl	$5, -14712(%rbp)
	movl	$5, -14716(%rbp)
	movl	$5, -14720(%rbp)
	movl	$5, -14724(%rbp)
	movl	$5, -14728(%rbp)
	movl	$5, -14732(%rbp)
	movl	$5, -14736(%rbp)
	movl	$5, -14740(%rbp)
	movl	$5, -14744(%rbp)
	movl	$5, -14748(%rbp)
	movl	$5, -14752(%rbp)
	movl	$5, -14756(%rbp)
	movl	$5, -14760(%rbp)
	movl	$5, -14764(%rbp)
	movl	$5, -14768(%rbp)
	movl	$5, -14772(%rbp)
	movl	$5, -14776(%rbp)
	movl	$5, -14780(%rbp)
	movl	$5, -14784(%rbp)
	movl	$5, -14788(%rbp)
	movl	$5, -14792(%rbp)
	movl	$5, -14796(%rbp)
	movl	$5, -14800(%rbp)
	movl	$5, -14804(%rbp)
	movl	$5, -14808(%rbp)
	movl	$5, -14812(%rbp)
	movl	$5, -14816(%rbp)
	movl	$5, -14820(%rbp)
	movl	$5, -14824(%rbp)
	movl	$5, -14828(%rbp)
	movl	$5, -14832(%rbp)
	movl	$5, -14836(%rbp)
	movl	$5, -14840(%rbp)
	movl	$5, -14844(%rbp)
	movl	$5, -14848(%rbp)
	movl	$5, -14852(%rbp)
	movl	$5, -14856(%rbp)
	movl	$5, -14860(%rbp)
	movl	$5, -14864(%rbp)
	movl	$5, -14868(%rbp)
	movl	$5, -14872(%rbp)
	movl	$5, -14876(%rbp)
	movl	$5, -14880(%rbp)
	movl	$5, -14884(%rbp)
	movl	$5, -14888(%rbp)
	movl	$5, -14892(%rbp)
	movl	$5, -14896(%rbp)
	movl	$5, -14900(%rbp)
	movl	$5, -14904(%rbp)
	movl	$5, -14908(%rbp)
	movl	$5, -14912(%rbp)
	movl	$5, -14916(%rbp)
	movl	$5, -14920(%rbp)
	movl	$5, -14924(%rbp)
	movl	$5, -14928(%rbp)
	movl	$5, -14932(%rbp)
	movl	$5, -14936(%rbp)
	movl	$5, -14940(%rbp)
	movl	$5, -14944(%rbp)
	movl	$5, -14948(%rbp)
	movl	$5, -14952(%rbp)
	movl	$5, -14956(%rbp)
	movl	$5, -14960(%rbp)
	movl	$5, -14964(%rbp)
	movl	$5, -14968(%rbp)
	movl	$5, -14972(%rbp)
	movl	$5, -14976(%rbp)
	movl	$5, -14980(%rbp)
	movl	$5, -14984(%rbp)
	movl	$5, -14988(%rbp)
	movl	$5, -14992(%rbp)
	movl	$5, -14996(%rbp)
	movl	$5, -15000(%rbp)
	movl	$5, -15004(%rbp)
	movl	$5, -15008(%rbp)
	movl	$5, -15012(%rbp)
	movl	$5, -15016(%rbp)
	movl	$5, -15020(%rbp)
	movl	$5, -15024(%rbp)
	movl	$5, -15028(%rbp)
	movl	$5, -15032(%rbp)
	movl	$5, -15036(%rbp)
	movl	$5, -15040(%rbp)
	movl	$5, -15044(%rbp)
	movl	$5, -15048(%rbp)
	movl	$5, -15052(%rbp)
	movl	$5, -15056(%rbp)
	movl	$5, -15060(%rbp)
	movl	$5, -15064(%rbp)
	movl	$5, -15068(%rbp)
	movl	$5, -15072(%rbp)
	movl	$5, -15076(%rbp)
	movl	$5, -15080(%rbp)
	movl	$5, -15084(%rbp)
	movl	$5, -15088(%rbp)
	movl	$5, -15092(%rbp)
	movl	$5, -15096(%rbp)
	movl	$5, -15100(%rbp)
	movl	$5, -15104(%rbp)
	movl	$5, -15108(%rbp)
	movl	$5, -15112(%rbp)
	movl	$5, -15116(%rbp)
	movl	$5, -15120(%rbp)
	movl	$5, -15124(%rbp)
	movl	$5, -15128(%rbp)
	movl	$5, -15132(%rbp)
	movl	$5, -15136(%rbp)
	movl	$5, -15140(%rbp)
	movl	$5, -15144(%rbp)
	movl	$5, -15148(%rbp)
	movl	$5, -15152(%rbp)
	movl	$5, -15156(%rbp)
	movl	$5, -15160(%rbp)
	movl	$5, -15164(%rbp)
	movl	$5, -15168(%rbp)
	movl	$5, -15172(%rbp)
	movl	$5, -15176(%rbp)
	movl	$5, -15180(%rbp)
	movl	$5, -15184(%rbp)
	movl	$5, -15188(%rbp)
	movl	$5, -15192(%rbp)
	movl	$5, -15196(%rbp)
	movl	$5, -15200(%rbp)
	movl	$5, -15204(%rbp)
	movl	$5, -15208(%rbp)
	movl	$5, -15212(%rbp)
	movl	$5, -15216(%rbp)
	movl	$5, -15220(%rbp)
	movl	$5, -15224(%rbp)
	movl	$5, -15228(%rbp)
	movl	$5, -15232(%rbp)
	movl	$5, -15236(%rbp)
	movl	$5, -15240(%rbp)
	movl	$5, -15244(%rbp)
	movl	$5, -15248(%rbp)
	movl	$5, -15252(%rbp)
	movl	$5, -15256(%rbp)
	movl	$5, -15260(%rbp)
	movl	$5, -15264(%rbp)
	movl	$5, -15268(%rbp)
	movl	$5, -15272(%rbp)
	movl	$5, -15276(%rbp)
	movl	$5, -15280(%rbp)
	movl	$5, -15284(%rbp)
	movl	$5, -15288(%rbp)
	movl	$5, -15292(%rbp)
	movl	$5, -15296(%rbp)
	movl	$5, -15300(%rbp)
	movl	$5, -15304(%rbp)
	movl	$5, -15308(%rbp)
	movl	$5, -15312(%rbp)
	movl	$5, -15316(%rbp)
	movl	$5, -15320(%rbp)
	movl	$5, -15324(%rbp)
	movl	$5, -15328(%rbp)
	movl	$5, -15332(%rbp)
	movl	$5, -15336(%rbp)
	movl	$5, -15340(%rbp)
	movl	$5, -15344(%rbp)
	movl	$5, -15348(%rbp)
	movl	$5, -15352(%rbp)
	movl	$5, -15356(%rbp)
	movl	$5, -15360(%rbp)
	movl	$5, -15364(%rbp)
	movl	$5, -15368(%rbp)
	movl	$5, -15372(%rbp)
	movl	$5, -15376(%rbp)
	movl	$5, -15380(%rbp)
	movl	$5, -15384(%rbp)
	movl	$5, -15388(%rbp)
	movl	$5, -15392(%rbp)
	movl	$5, -15396(%rbp)
	movl	$5, -15400(%rbp)
	movl	$5, -15404(%rbp)
	movl	$5, -15408(%rbp)
	movl	$5, -15412(%rbp)
	movl	$5, -15416(%rbp)
	movl	$5, -15420(%rbp)
	movl	$5, -15424(%rbp)
	movl	$5, -15428(%rbp)
	movl	$5, -15432(%rbp)
	movl	$5, -15436(%rbp)
	movl	$5, -15440(%rbp)
	movl	$5, -15444(%rbp)
	movl	$5, -15448(%rbp)
	movl	$5, -15452(%rbp)
	movl	$5, -15456(%rbp)
	movl	$5, -15460(%rbp)
	movl	$5, -15464(%rbp)
	movl	$5, -15468(%rbp)
	movl	$5, -15472(%rbp)
	movl	$5, -15476(%rbp)
	movl	$5, -15480(%rbp)
	movl	$5, -15484(%rbp)
	movl	$5, -15488(%rbp)
	movl	$5, -15492(%rbp)
	movl	$5, -15496(%rbp)
	movl	$5, -15500(%rbp)
	movl	$5, -15504(%rbp)
	movl	$5, -15508(%rbp)
	movl	$5, -15512(%rbp)
	movl	$5, -15516(%rbp)
	movl	$5, -15520(%rbp)
	movl	$5, -15524(%rbp)
	movl	$5, -15528(%rbp)
	movl	$5, -15532(%rbp)
	movl	$5, -15536(%rbp)
	movl	$5, -15540(%rbp)
	movl	$5, -15544(%rbp)
	movl	$5, -15548(%rbp)
	movl	$5, -15552(%rbp)
	movl	$5, -15556(%rbp)
	movl	$5, -15560(%rbp)
	movl	$5, -15564(%rbp)
	movl	$5, -15568(%rbp)
	movl	$5, -15572(%rbp)
	movl	$5, -15576(%rbp)
	movl	$5, -15580(%rbp)
	movl	$5, -15584(%rbp)
	movl	$5, -15588(%rbp)
	movl	$5, -15592(%rbp)
	movl	$5, -15596(%rbp)
	movl	$5, -15600(%rbp)
	movl	$5, -15604(%rbp)
	movl	$5, -15608(%rbp)
	movl	$5, -15612(%rbp)
	movl	$5, -15616(%rbp)
	movl	$5, -15620(%rbp)
	movl	$5, -15624(%rbp)
	movl	$5, -15628(%rbp)
	movl	$5, -15632(%rbp)
	movl	$5, -15636(%rbp)
	movl	$5, -15640(%rbp)
	movl	$5, -15644(%rbp)
	movl	$5, -15648(%rbp)
	movl	$5, -15652(%rbp)
	movl	$5, -15656(%rbp)
	movl	$5, -15660(%rbp)
	movl	$5, -15664(%rbp)
	movl	$5, -15668(%rbp)
	movl	$5, -15672(%rbp)
	movl	$5, -15676(%rbp)
	movl	$5, -15680(%rbp)
	movl	$5, -15684(%rbp)
	movl	$5, -15688(%rbp)
	movl	$5, -15692(%rbp)
	movl	$5, -15696(%rbp)
	movl	$5, -15700(%rbp)
	movl	$5, -15704(%rbp)
	movl	$5, -15708(%rbp)
	movl	$5, -15712(%rbp)
	movl	$5, -15716(%rbp)
	movl	$5, -15720(%rbp)
	movl	$5, -15724(%rbp)
	movl	$5, -15728(%rbp)
	movl	$5, -15732(%rbp)
	movl	$5, -15736(%rbp)
	movl	$5, -15740(%rbp)
	movl	$5, -15744(%rbp)
	movl	$5, -15748(%rbp)
	movl	$5, -15752(%rbp)
	movl	$5, -15756(%rbp)
	movl	$5, -15760(%rbp)
	movl	$5, -15764(%rbp)
	movl	$5, -15768(%rbp)
	movl	$5, -15772(%rbp)
	movl	$5, -15776(%rbp)
	movl	$5, -15780(%rbp)
	movl	$5, -15784(%rbp)
	movl	$5, -15788(%rbp)
	movl	$5, -15792(%rbp)
	movl	$5, -15796(%rbp)
	movl	$5, -15800(%rbp)
	movl	$5, -15804(%rbp)
	movl	$5, -15808(%rbp)
	movl	$5, -15812(%rbp)
	movl	$5, -15816(%rbp)
	movl	$5, -15820(%rbp)
	movl	$5, -15824(%rbp)
	movl	$5, -15828(%rbp)
	movl	$5, -15832(%rbp)
	movl	$5, -15836(%rbp)
	movl	$5, -15840(%rbp)
	movl	$5, -15844(%rbp)
	movl	$5, -15848(%rbp)
	movl	$5, -15852(%rbp)
	movl	$5, -15856(%rbp)
	movl	$5, -15860(%rbp)
	movl	$5, -15864(%rbp)
	movl	$5, -15868(%rbp)
	movl	$5, -15872(%rbp)
	movl	$5, -15876(%rbp)
	movl	$5, -15880(%rbp)
	movl	$5, -15884(%rbp)
	movl	$5, -15888(%rbp)
	movl	$5, -15892(%rbp)
	movl	$5, -15896(%rbp)
	movl	$5, -15900(%rbp)
	movl	$5, -15904(%rbp)
	movl	$5, -15908(%rbp)
	movl	$5, -15912(%rbp)
	movl	$5, -15916(%rbp)
	movl	$5, -15920(%rbp)
	movl	$5, -15924(%rbp)
	movl	$5, -15928(%rbp)
	movl	$5, -15932(%rbp)
	movl	$5, -15936(%rbp)
	movl	$5, -15940(%rbp)
	movl	$5, -15944(%rbp)
	movl	$5, -15948(%rbp)
	movl	$5, -15952(%rbp)
	movl	$5, -15956(%rbp)
	movl	$5, -15960(%rbp)
	movl	$5, -15964(%rbp)
	movl	$5, -15968(%rbp)
	movl	$5, -15972(%rbp)
	movl	$5, -15976(%rbp)
	movl	$5, -15980(%rbp)
	movl	$5, -15984(%rbp)
	movl	$5, -15988(%rbp)
	movl	$5, -15992(%rbp)
	movl	$5, -15996(%rbp)
	movl	$5, -16000(%rbp)
	movl	$5, -16004(%rbp)
	movl	$5, -16008(%rbp)
	movl	$5, -16012(%rbp)
	movl	$5, -16016(%rbp)
	movl	$5, -16020(%rbp)
	movl	$5, -16024(%rbp)
	movl	$5, -16028(%rbp)
	movl	$5, -16032(%rbp)
	movl	$5, -16036(%rbp)
	movl	$5, -16040(%rbp)
	movl	$5, -16044(%rbp)
	movl	$5, -16048(%rbp)
	movl	$5, -16052(%rbp)
	movl	$5, -16056(%rbp)
	movl	$5, -16060(%rbp)
	movl	$5, -16064(%rbp)
	movl	$5, -16068(%rbp)
	movl	$5, -16072(%rbp)
	movl	$5, -16076(%rbp)
	movl	$5, -16080(%rbp)
	movl	$5, -16084(%rbp)
	movl	$5, -16088(%rbp)
	movl	$5, -16092(%rbp)
	movl	$5, -16096(%rbp)
	movl	$5, -16100(%rbp)
	movl	$5, -16104(%rbp)
	movl	$5, -16108(%rbp)
	movl	$5, -16112(%rbp)
	movl	$5, -16116(%rbp)
	movl	$5, -16120(%rbp)
	movl	$5, -16124(%rbp)
	movl	$5, -16128(%rbp)
	movl	$5, -16132(%rbp)
	movl	$5, -16136(%rbp)
	movl	$5, -16140(%rbp)
	movl	$5, -16144(%rbp)
	movl	$5, -16148(%rbp)
	movl	$5, -16152(%rbp)
	movl	$5, -16156(%rbp)
	movl	$5, -16160(%rbp)
	movl	$5, -16164(%rbp)
	movl	$5, -16168(%rbp)
	movl	$5, -16172(%rbp)
	movl	$5, -16176(%rbp)
	movl	$5, -16180(%rbp)
	movl	$5, -16184(%rbp)
	movl	$5, -16188(%rbp)
	movl	$5, -16192(%rbp)
	movl	$5, -16196(%rbp)
	movl	$5, -16200(%rbp)
	movl	$5, -16204(%rbp)
	movl	$5, -16208(%rbp)
	movl	$5, -16212(%rbp)
	movl	$5, -16216(%rbp)
	movl	$5, -16220(%rbp)
	movl	$5, -16224(%rbp)
	movl	$5, -16228(%rbp)
	movl	$5, -16232(%rbp)
	movl	$5, -16236(%rbp)
	movl	$5, -16240(%rbp)
	movl	$5, -16244(%rbp)
	movl	$5, -16248(%rbp)
	movl	$5, -16252(%rbp)
	movl	$5, -16256(%rbp)
	movl	$5, -16260(%rbp)
	movl	$5, -16264(%rbp)
	movl	$5, -16268(%rbp)
	movl	$5, -16272(%rbp)
	movl	$5, -16276(%rbp)
	movl	$5, -16280(%rbp)
	movl	$5, -16284(%rbp)
	movl	$5, -16288(%rbp)
	movl	$5, -16292(%rbp)
	movl	$5, -16296(%rbp)
	movl	$5, -16300(%rbp)
	movl	$5, -16304(%rbp)
	movl	$5, -16308(%rbp)
	movl	$5, -16312(%rbp)
	movl	$5, -16316(%rbp)
	movl	$5, -16320(%rbp)
	movl	$5, -16324(%rbp)
	movl	$5, -16328(%rbp)
	movl	$5, -16332(%rbp)
	movl	$5, -16336(%rbp)
	movl	$5, -16340(%rbp)
	movl	$5, -16344(%rbp)
	movl	$5, -16348(%rbp)
	movl	$5, -16352(%rbp)
	movl	$5, -16356(%rbp)
	movl	$5, -16360(%rbp)
	movl	$5, -16364(%rbp)
	movl	$5, -16368(%rbp)
	movl	$5, -16372(%rbp)
	movl	$5, -16376(%rbp)
	movl	$5, -16380(%rbp)
	movl	$5, -16384(%rbp)
	movl	$5, -16388(%rbp)
	movl	$5, -16392(%rbp)
	movl	$5, -16396(%rbp)
	movl	$5, -16400(%rbp)
	movl	$5, -16404(%rbp)
	movl	$5, -16408(%rbp)
	movl	$5, -16412(%rbp)
	movl	$5, -16416(%rbp)
	movl	$5, -16420(%rbp)
	movl	$5, -16424(%rbp)
	movl	$5, -16428(%rbp)
	movl	$5, -16432(%rbp)
	movl	$5, -16436(%rbp)
	movl	$5, -16440(%rbp)
	movl	$5, -16444(%rbp)
	movl	$5, -16448(%rbp)
	movl	$5, -16452(%rbp)
	movl	$5, -16456(%rbp)
	movl	$5, -16460(%rbp)
	movl	$5, -16464(%rbp)
	movl	$5, -16468(%rbp)
	movl	$5, -16472(%rbp)
	movl	$5, -16476(%rbp)
	movl	$5, -16480(%rbp)
	movl	$5, -16484(%rbp)
	movl	$5, -16488(%rbp)
	movl	$5, -16492(%rbp)
	movl	$5, -16496(%rbp)
	movl	$5, -16500(%rbp)
	movl	$5, -16504(%rbp)
	movl	$5, -16508(%rbp)
	movl	$5, -16512(%rbp)
	movl	$5, -16516(%rbp)
	movl	$5, -16520(%rbp)
	movl	$5, -16524(%rbp)
	movl	$5, -16528(%rbp)
	movl	$5, -16532(%rbp)
	movl	$5, -16536(%rbp)
	movl	$5, -16540(%rbp)
	movl	$5, -16544(%rbp)
	movl	$5, -16548(%rbp)
	movl	$5, -16552(%rbp)
	movl	$5, -16556(%rbp)
	movl	$5, -16560(%rbp)
	movl	$5, -16564(%rbp)
	movl	$5, -16568(%rbp)
	movl	$5, -16572(%rbp)
	movl	$5, -16576(%rbp)
	movl	$5, -16580(%rbp)
	movl	$5, -16584(%rbp)
	movl	$5, -16588(%rbp)
	movl	$5, -16592(%rbp)
	movl	$5, -16596(%rbp)
	movl	$5, -16600(%rbp)
	movl	$5, -16604(%rbp)
	movl	$5, -16608(%rbp)
	movl	$5, -16612(%rbp)
	movl	$5, -16616(%rbp)
	movl	$5, -16620(%rbp)
	movl	$5, -16624(%rbp)
	movl	$5, -16628(%rbp)
	movl	$5, -16632(%rbp)
	movl	$5, -16636(%rbp)
	movl	$5, -16640(%rbp)
	movl	$5, -16644(%rbp)
	movl	$5, -16648(%rbp)
	movl	$5, -16652(%rbp)
	movl	$5, -16656(%rbp)
	movl	$5, -16660(%rbp)
	movl	$5, -16664(%rbp)
	movl	$5, -16668(%rbp)
	movl	$5, -16672(%rbp)
	movl	$5, -16676(%rbp)
	movl	$5, -16680(%rbp)
	movl	$5, -16684(%rbp)
	movl	$5, -16688(%rbp)
	movl	$5, -16692(%rbp)
	movl	$5, -16696(%rbp)
	movl	$5, -16700(%rbp)
	movl	$5, -16704(%rbp)
	movl	$5, -16708(%rbp)
	movl	$5, -16712(%rbp)
	movl	$5, -16716(%rbp)
	movl	$5, -16720(%rbp)
	movl	$5, -16724(%rbp)
	movl	$5, -16728(%rbp)
	movl	$5, -16732(%rbp)
	movl	$5, -16736(%rbp)
	movl	$5, -16740(%rbp)
	movl	$5, -16744(%rbp)
	movl	$5, -16748(%rbp)
	movl	$5, -16752(%rbp)
	movl	$5, -16756(%rbp)
	movl	$5, -16760(%rbp)
	movl	$5, -16764(%rbp)
	movl	$5, -16768(%rbp)
	movl	$5, -16772(%rbp)
	movl	$5, -16776(%rbp)
	movl	$5, -16780(%rbp)
	movl	$5, -16784(%rbp)
	movl	$5, -16788(%rbp)
	movl	$5, -16792(%rbp)
	movl	$5, -16796(%rbp)
	movl	$5, -16800(%rbp)
	movl	$5, -16804(%rbp)
	movl	$5, -16808(%rbp)
	movl	$5, -16812(%rbp)
	movl	$5, -16816(%rbp)
	movl	$5, -16820(%rbp)
	movl	$5, -16824(%rbp)
	movl	$5, -16828(%rbp)
	movl	$5, -16832(%rbp)
	movl	$5, -16836(%rbp)
	movl	$5, -16840(%rbp)
	movl	$5, -16844(%rbp)
	movl	$5, -16848(%rbp)
	movl	$5, -16852(%rbp)
	movl	$5, -16856(%rbp)
	movl	$5, -16860(%rbp)
	movl	$5, -16864(%rbp)
	movl	$5, -16868(%rbp)
	movl	$5, -16872(%rbp)
	movl	$5, -16876(%rbp)
	movl	$5, -16880(%rbp)
	movl	$5, -16884(%rbp)
	movl	$5, -16888(%rbp)
	movl	$5, -16892(%rbp)
	movl	$5, -16896(%rbp)
	movl	$5, -16900(%rbp)
	movl	$5, -16904(%rbp)
	movl	$5, -16908(%rbp)
	movl	$5, -16912(%rbp)
	movl	$5, -16916(%rbp)
	movl	$5, -16920(%rbp)
	movl	$5, -16924(%rbp)
	movl	$5, -16928(%rbp)
	movl	$5, -16932(%rbp)
	movl	$5, -16936(%rbp)
	movl	$5, -16940(%rbp)
	movl	$5, -16944(%rbp)
	movl	$5, -16948(%rbp)
	movl	$5, -16952(%rbp)
	movl	$5, -16956(%rbp)
	movl	$5, -16960(%rbp)
	movl	$5, -16964(%rbp)
	movl	$5, -16968(%rbp)
	movl	$5, -16972(%rbp)
	movl	$5, -16976(%rbp)
	movl	$5, -16980(%rbp)
	movl	$5, -16984(%rbp)
	movl	$5, -16988(%rbp)
	movl	$5, -16992(%rbp)
	movl	$5, -16996(%rbp)
	movl	$5, -17000(%rbp)
	movl	$5, -17004(%rbp)
	movl	$5, -17008(%rbp)
	movl	$5, -17012(%rbp)
	movl	$5, -17016(%rbp)
	movl	$5, -17020(%rbp)
	movl	$5, -17024(%rbp)
	movl	$5, -17028(%rbp)
	movl	$5, -17032(%rbp)
	movl	$5, -17036(%rbp)
	movl	$5, -17040(%rbp)
	movl	$5, -17044(%rbp)
	movl	$5, -17048(%rbp)
	movl	$5, -17052(%rbp)
	movl	$5, -17056(%rbp)
	movl	$5, -17060(%rbp)
	movl	$5, -17064(%rbp)
	movl	$5, -17068(%rbp)
	movl	$5, -17072(%rbp)
	movl	$5, -17076(%rbp)
	movl	$5, -17080(%rbp)
	movl	$5, -17084(%rbp)
	movl	$5, -17088(%rbp)
	movl	$5, -17092(%rbp)
	movl	$5, -17096(%rbp)
	movl	$5, -17100(%rbp)
	movl	$5, -17104(%rbp)
	movl	$5, -17108(%rbp)
	movl	$5, -17112(%rbp)
	movl	$5, -17116(%rbp)
	movl	$5, -17120(%rbp)
	movl	$5, -17124(%rbp)
	movl	$5, -17128(%rbp)
	movl	$5, -17132(%rbp)
	movl	$5, -17136(%rbp)
	movl	$5, -17140(%rbp)
	movl	$5, -17144(%rbp)
	movl	$5, -17148(%rbp)
	movl	$5, -17152(%rbp)
	movl	$5, -17156(%rbp)
	movl	$5, -17160(%rbp)
	movl	$5, -17164(%rbp)
	movl	$5, -17168(%rbp)
	movl	$5, -17172(%rbp)
	movl	$5, -17176(%rbp)
	movl	$5, -17180(%rbp)
	movl	$5, -17184(%rbp)
	movl	$5, -17188(%rbp)
	movl	$5, -17192(%rbp)
	movl	$5, -17196(%rbp)
	movl	$5, -17200(%rbp)
	movl	$5, -17204(%rbp)
	movl	$5, -17208(%rbp)
	movl	$5, -17212(%rbp)
	movl	$5, -17216(%rbp)
	movl	$5, -17220(%rbp)
	movl	$5, -17224(%rbp)
	movl	$5, -17228(%rbp)
	movl	$5, -17232(%rbp)
	movl	$5, -17236(%rbp)
	movl	$5, -17240(%rbp)
	movl	$5, -17244(%rbp)
	movl	$5, -17248(%rbp)
	movl	$5, -17252(%rbp)
	movl	$5, -17256(%rbp)
	movl	$5, -17260(%rbp)
	movl	$5, -17264(%rbp)
	movl	$5, -17268(%rbp)
	movl	$5, -17272(%rbp)
	movl	$5, -17276(%rbp)
	movl	$5, -17280(%rbp)
	movl	$5, -17284(%rbp)
	movl	$5, -17288(%rbp)
	movl	$5, -17292(%rbp)
	movl	$5, -17296(%rbp)
	movl	$5, -17300(%rbp)
	movl	$5, -17304(%rbp)
	movl	$5, -17308(%rbp)
	movl	$5, -17312(%rbp)
	movl	$5, -17316(%rbp)
	movl	$5, -17320(%rbp)
	movl	$5, -17324(%rbp)
	movl	$5, -17328(%rbp)
	movl	$5, -17332(%rbp)
	movl	$5, -17336(%rbp)
	movl	$5, -17340(%rbp)
	movl	$5, -17344(%rbp)
	movl	$5, -17348(%rbp)
	movl	$5, -17352(%rbp)
	movl	$5, -17356(%rbp)
	movl	$5, -17360(%rbp)
	movl	$5, -17364(%rbp)
	movl	$5, -17368(%rbp)
	movl	$5, -17372(%rbp)
	movl	$5, -17376(%rbp)
	movl	$5, -17380(%rbp)
	movl	$5, -17384(%rbp)
	movl	$5, -17388(%rbp)
	movl	$5, -17392(%rbp)
	movl	$5, -17396(%rbp)
	movl	$5, -17400(%rbp)
	movl	$5, -17404(%rbp)
	movl	$5, -17408(%rbp)
	movl	$5, -17412(%rbp)
	movl	$5, -17416(%rbp)
	movl	$5, -17420(%rbp)
	movl	$5, -17424(%rbp)
	movl	$5, -17428(%rbp)
	movl	$5, -17432(%rbp)
	movl	$5, -17436(%rbp)
	movl	$5, -17440(%rbp)
	movl	$5, -17444(%rbp)
	movl	$5, -17448(%rbp)
	movl	$5, -17452(%rbp)
	movl	$5, -17456(%rbp)
	movl	$5, -17460(%rbp)
	movl	$5, -17464(%rbp)
	movl	$5, -17468(%rbp)
	movl	$5, -17472(%rbp)
	movl	$5, -17476(%rbp)
	movl	$5, -17480(%rbp)
	movl	$5, -17484(%rbp)
	movl	$5, -17488(%rbp)
	movl	$5, -17492(%rbp)
	movl	$5, -17496(%rbp)
	movl	$5, -17500(%rbp)
	movl	$5, -17504(%rbp)
	movl	$5, -17508(%rbp)
	movl	$5, -17512(%rbp)
	movl	$5, -17516(%rbp)
	movl	$5, -17520(%rbp)
	movl	$5, -17524(%rbp)
	movl	$5, -17528(%rbp)
	movl	$5, -17532(%rbp)
	movl	$5, -17536(%rbp)
	movl	$5, -17540(%rbp)
	movl	$5, -17544(%rbp)
	movl	$5, -17548(%rbp)
	movl	$5, -17552(%rbp)
	movl	$5, -17556(%rbp)
	movl	$5, -17560(%rbp)
	movl	$5, -17564(%rbp)
	movl	$5, -17568(%rbp)
	movl	$5, -17572(%rbp)
	movl	$5, -17576(%rbp)
	movl	$5, -17580(%rbp)
	movl	$5, -17584(%rbp)
	movl	$5, -17588(%rbp)
	movl	$5, -17592(%rbp)
	movl	$5, -17596(%rbp)
	movl	$5, -17600(%rbp)
	movl	$5, -17604(%rbp)
	movl	$5, -17608(%rbp)
	movl	$5, -17612(%rbp)
	movl	$5, -17616(%rbp)
	movl	$5, -17620(%rbp)
	movl	$5, -17624(%rbp)
	movl	$5, -17628(%rbp)
	movl	$5, -17632(%rbp)
	movl	$5, -17636(%rbp)
	movl	$5, -17640(%rbp)
	movl	$5, -17644(%rbp)
	movl	$5, -17648(%rbp)
	movl	$5, -17652(%rbp)
	movl	$5, -17656(%rbp)
	movl	$5, -17660(%rbp)
	movl	$5, -17664(%rbp)
	movl	$5, -17668(%rbp)
	movl	$5, -17672(%rbp)
	movl	$5, -17676(%rbp)
	movl	$5, -17680(%rbp)
	movl	$5, -17684(%rbp)
	movl	$5, -17688(%rbp)
	movl	$5, -17692(%rbp)
	movl	$5, -17696(%rbp)
	movl	$5, -17700(%rbp)
	movl	$5, -17704(%rbp)
	movl	$5, -17708(%rbp)
	movl	$5, -17712(%rbp)
	movl	$5, -17716(%rbp)
	movl	$5, -17720(%rbp)
	movl	$5, -17724(%rbp)
	movl	$5, -17728(%rbp)
	movl	$5, -17732(%rbp)
	movl	$5, -17736(%rbp)
	movl	$5, -17740(%rbp)
	movl	$5, -17744(%rbp)
	movl	$5, -17748(%rbp)
	movl	$5, -17752(%rbp)
	movl	$5, -17756(%rbp)
	movl	$5, -17760(%rbp)
	movl	$5, -17764(%rbp)
	movl	$5, -17768(%rbp)
	movl	$5, -17772(%rbp)
	movl	$5, -17776(%rbp)
	movl	$5, -17780(%rbp)
	movl	$5, -17784(%rbp)
	movl	$5, -17788(%rbp)
	movl	$5, -17792(%rbp)
	movl	$5, -17796(%rbp)
	movl	$5, -17800(%rbp)
	movl	$5, -17804(%rbp)
	movl	$5, -17808(%rbp)
	movl	$5, -17812(%rbp)
	movl	$5, -17816(%rbp)
	movl	$5, -17820(%rbp)
	movl	$5, -17824(%rbp)
	movl	$5, -17828(%rbp)
	movl	$5, -17832(%rbp)
	movl	$5, -17836(%rbp)
	movl	$5, -17840(%rbp)
	movl	$5, -17844(%rbp)
	movl	$5, -17848(%rbp)
	movl	$5, -17852(%rbp)
	movl	$5, -17856(%rbp)
	movl	$5, -17860(%rbp)
	movl	$5, -17864(%rbp)
	movl	$5, -17868(%rbp)
	movl	$5, -17872(%rbp)
	movl	$5, -17876(%rbp)
	movl	$5, -17880(%rbp)
	movl	$5, -17884(%rbp)
	movl	$5, -17888(%rbp)
	movl	$5, -17892(%rbp)
	movl	$5, -17896(%rbp)
	movl	$5, -17900(%rbp)
	movl	$5, -17904(%rbp)
	movl	$5, -17908(%rbp)
	movl	$5, -17912(%rbp)
	movl	$5, -17916(%rbp)
	movl	$5, -17920(%rbp)
	movl	$5, -17924(%rbp)
	movl	$5, -17928(%rbp)
	movl	$5, -17932(%rbp)
	movl	$5, -17936(%rbp)
	movl	$5, -17940(%rbp)
	movl	$5, -17944(%rbp)
	movl	$5, -17948(%rbp)
	movl	$5, -17952(%rbp)
	movl	$5, -17956(%rbp)
	movl	$5, -17960(%rbp)
	movl	$5, -17964(%rbp)
	movl	$5, -17968(%rbp)
	movl	$5, -17972(%rbp)
	movl	$5, -17976(%rbp)
	movl	$5, -17980(%rbp)
	movl	$5, -17984(%rbp)
	movl	$5, -17988(%rbp)
	movl	$5, -17992(%rbp)
	movl	$5, -17996(%rbp)
	movl	$5, -18000(%rbp)
	movl	$5, -18004(%rbp)
	movl	$5, -18008(%rbp)
	movl	$5, -18012(%rbp)
	movl	$5, -18016(%rbp)
	movl	$5, -18020(%rbp)
	movl	$5, -18024(%rbp)
	movl	$5, -18028(%rbp)
	movl	$5, -18032(%rbp)
	movl	$5, -18036(%rbp)
	movl	$5, -18040(%rbp)
	movl	$5, -18044(%rbp)
	movl	$5, -18048(%rbp)
	movl	$5, -18052(%rbp)
	movl	$5, -18056(%rbp)
	movl	$5, -18060(%rbp)
	movl	$5, -18064(%rbp)
	movl	$5, -18068(%rbp)
	movl	$5, -18072(%rbp)
	movl	$5, -18076(%rbp)
	movl	$5, -18080(%rbp)
	movl	$5, -18084(%rbp)
	movl	$5, -18088(%rbp)
	movl	$5, -18092(%rbp)
	movl	$5, -18096(%rbp)
	movl	$5, -18100(%rbp)
	movl	$5, -18104(%rbp)
	movl	$5, -18108(%rbp)
	movl	$5, -18112(%rbp)
	movl	$5, -18116(%rbp)
	movl	$5, -18120(%rbp)
	movl	$5, -18124(%rbp)
	movl	$5, -18128(%rbp)
	movl	$5, -18132(%rbp)
	movl	$5, -18136(%rbp)
	movl	$5, -18140(%rbp)
	movl	$5, -18144(%rbp)
	movl	$5, -18148(%rbp)
	movl	$5, -18152(%rbp)
	movl	$5, -18156(%rbp)
	movl	$5, -18160(%rbp)
	movl	$5, -18164(%rbp)
	movl	$5, -18168(%rbp)
	movl	$5, -18172(%rbp)
	movl	$5, -18176(%rbp)
	movl	$5, -18180(%rbp)
	movl	$5, -18184(%rbp)
	movl	$5, -18188(%rbp)
	movl	$5, -18192(%rbp)
	movl	$5, -18196(%rbp)
	movl	$5, -18200(%rbp)
	movl	$5, -18204(%rbp)
	movl	$5, -18208(%rbp)
	movl	$5, -18212(%rbp)
	movl	$5, -18216(%rbp)
	movl	$5, -18220(%rbp)
	movl	$5, -18224(%rbp)
	movl	$5, -18228(%rbp)
	movl	$5, -18232(%rbp)
	movl	$5, -18236(%rbp)
	movl	$5, -18240(%rbp)
	movl	$5, -18244(%rbp)
	movl	$5, -18248(%rbp)
	movl	$5, -18252(%rbp)
	movl	$5, -18256(%rbp)
	movl	$5, -18260(%rbp)
	movl	$5, -18264(%rbp)
	movl	$5, -18268(%rbp)
	movl	$5, -18272(%rbp)
	movl	$5, -18276(%rbp)
	movl	$5, -18280(%rbp)
	movl	$5, -18284(%rbp)
	movl	$5, -18288(%rbp)
	movl	$5, -18292(%rbp)
	movl	$5, -18296(%rbp)
	movl	$5, -18300(%rbp)
	movl	$5, -18304(%rbp)
	movl	$5, -18308(%rbp)
	movl	$5, -18312(%rbp)
	movl	$5, -18316(%rbp)
	movl	$5, -18320(%rbp)
	movl	$5, -18324(%rbp)
	movl	$5, -18328(%rbp)
	movl	$5, -18332(%rbp)
	movl	$5, -18336(%rbp)
	movl	$5, -18340(%rbp)
	movl	$5, -18344(%rbp)
	movl	$5, -18348(%rbp)
	movl	$5, -18352(%rbp)
	movl	$5, -18356(%rbp)
	movl	$5, -18360(%rbp)
	movl	$5, -18364(%rbp)
	movl	$5, -18368(%rbp)
	movl	$5, -18372(%rbp)
	movl	$5, -18376(%rbp)
	movl	$5, -18380(%rbp)
	movl	$5, -18384(%rbp)
	movl	$5, -18388(%rbp)
	movl	$5, -18392(%rbp)
	movl	$5, -18396(%rbp)
	movl	$5, -18400(%rbp)
	movl	$5, -18404(%rbp)
	movl	$5, -18408(%rbp)
	movl	$5, -18412(%rbp)
	movl	$5, -18416(%rbp)
	movl	$5, -18420(%rbp)
	movl	$5, -18424(%rbp)
	movl	$5, -18428(%rbp)
	movl	$5, -18432(%rbp)
	movl	$5, -18436(%rbp)
	movl	$5, -18440(%rbp)
	movl	$5, -18444(%rbp)
	movl	$5, -18448(%rbp)
	movl	$5, -18452(%rbp)
	movl	$5, -18456(%rbp)
	movl	$5, -18460(%rbp)
	movl	$5, -18464(%rbp)
	movl	$5, -18468(%rbp)
	movl	$5, -18472(%rbp)
	movl	$5, -18476(%rbp)
	movl	$5, -18480(%rbp)
	movl	$5, -18484(%rbp)
	movl	$5, -18488(%rbp)
	movl	$5, -18492(%rbp)
	movl	$5, -18496(%rbp)
	movl	$5, -18500(%rbp)
	movl	$5, -18504(%rbp)
	movl	$5, -18508(%rbp)
	movl	$5, -18512(%rbp)
	movl	$5, -18516(%rbp)
	movl	$5, -18520(%rbp)
	movl	$5, -18524(%rbp)
	movl	$5, -18528(%rbp)
	movl	$5, -18532(%rbp)
	movl	$5, -18536(%rbp)
	movl	$5, -18540(%rbp)
	movl	$5, -18544(%rbp)
	movl	$5, -18548(%rbp)
	movl	$5, -18552(%rbp)
	movl	$5, -18556(%rbp)
	movl	$5, -18560(%rbp)
	movl	$5, -18564(%rbp)
	movl	$5, -18568(%rbp)
	movl	$5, -18572(%rbp)
	movl	$5, -18576(%rbp)
	movl	$5, -18580(%rbp)
	movl	$5, -18584(%rbp)
	movl	$5, -18588(%rbp)
	movl	$5, -18592(%rbp)
	movl	$5, -18596(%rbp)
	movl	$5, -18600(%rbp)
	movl	$5, -18604(%rbp)
	movl	$5, -18608(%rbp)
	movl	$5, -18612(%rbp)
	movl	$5, -18616(%rbp)
	movl	$5, -18620(%rbp)
	movl	$5, -18624(%rbp)
	movl	$5, -18628(%rbp)
	movl	$5, -18632(%rbp)
	movl	$5, -18636(%rbp)
	movl	$5, -18640(%rbp)
	movl	$5, -18644(%rbp)
	movl	$5, -18648(%rbp)
	movl	$5, -18652(%rbp)
	movl	$5, -18656(%rbp)
	movl	$5, -18660(%rbp)
	movl	$5, -18664(%rbp)
	movl	$5, -18668(%rbp)
	movl	$5, -18672(%rbp)
	movl	$5, -18676(%rbp)
	movl	$5, -18680(%rbp)
	movl	$5, -18684(%rbp)
	movl	$5, -18688(%rbp)
	movl	$5, -18692(%rbp)
	movl	$5, -18696(%rbp)
	movl	$5, -18700(%rbp)
	movl	$5, -18704(%rbp)
	movl	$5, -18708(%rbp)
	movl	$5, -18712(%rbp)
	movl	$5, -18716(%rbp)
	movl	$5, -18720(%rbp)
	movl	$5, -18724(%rbp)
	movl	$5, -18728(%rbp)
	movl	$5, -18732(%rbp)
	movl	$5, -18736(%rbp)
	movl	$5, -18740(%rbp)
	movl	$5, -18744(%rbp)
	movl	$5, -18748(%rbp)
	movl	$5, -18752(%rbp)
	movl	$5, -18756(%rbp)
	movl	$5, -18760(%rbp)
	movl	$5, -18764(%rbp)
	movl	$5, -18768(%rbp)
	movl	$5, -18772(%rbp)
	movl	$5, -18776(%rbp)
	movl	$5, -18780(%rbp)
	movl	$5, -18784(%rbp)
	movl	$5, -18788(%rbp)
	movl	$5, -18792(%rbp)
	movl	$5, -18796(%rbp)
	movl	$5, -18800(%rbp)
	movl	$5, -18804(%rbp)
	movl	$5, -18808(%rbp)
	movl	$5, -18812(%rbp)
	movl	$5, -18816(%rbp)
	movl	$5, -18820(%rbp)
	movl	$5, -18824(%rbp)
	movl	$5, -18828(%rbp)
	movl	$5, -18832(%rbp)
	movl	$5, -18836(%rbp)
	movl	$5, -18840(%rbp)
	movl	$5, -18844(%rbp)
	movl	$5, -18848(%rbp)
	movl	$5, -18852(%rbp)
	movl	$5, -18856(%rbp)
	movl	$5, -18860(%rbp)
	movl	$5, -18864(%rbp)
	movl	$5, -18868(%rbp)
	movl	$5, -18872(%rbp)
	movl	$5, -18876(%rbp)
	movl	$5, -18880(%rbp)
	movl	$5, -18884(%rbp)
	movl	$5, -18888(%rbp)
	movl	$5, -18892(%rbp)
	movl	$5, -18896(%rbp)
	movl	$5, -18900(%rbp)
	movl	$5, -18904(%rbp)
	movl	$5, -18908(%rbp)
	movl	$5, -18912(%rbp)
	movl	$5, -18916(%rbp)
	movl	$5, -18920(%rbp)
	movl	$5, -18924(%rbp)
	movl	$5, -18928(%rbp)
	movl	$5, -18932(%rbp)
	movl	$5, -18936(%rbp)
	movl	$5, -18940(%rbp)
	movl	$5, -18944(%rbp)
	movl	$5, -18948(%rbp)
	movl	$5, -18952(%rbp)
	movl	$5, -18956(%rbp)
	movl	$5, -18960(%rbp)
	movl	$5, -18964(%rbp)
	movl	$5, -18968(%rbp)
	movl	$5, -18972(%rbp)
	movl	$5, -18976(%rbp)
	movl	$5, -18980(%rbp)
	movl	$5, -18984(%rbp)
	movl	$5, -18988(%rbp)
	movl	$5, -18992(%rbp)
	movl	$5, -18996(%rbp)
	movl	$5, -19000(%rbp)
	movl	$5, -19004(%rbp)
	movl	$5, -19008(%rbp)
	movl	$5, -19012(%rbp)
	movl	$5, -19016(%rbp)
	movl	$5, -19020(%rbp)
	movl	$5, -19024(%rbp)
	movl	$5, -19028(%rbp)
	movl	$5, -19032(%rbp)
	movl	$5, -19036(%rbp)
	movl	$5, -19040(%rbp)
	movl	$5, -19044(%rbp)
	movl	$5, -19048(%rbp)
	movl	$5, -19052(%rbp)
	movl	$5, -19056(%rbp)
	movl	$5, -19060(%rbp)
	movl	$5, -19064(%rbp)
	movl	$5, -19068(%rbp)
	movl	$5, -19072(%rbp)
	movl	$5, -19076(%rbp)
	movl	$5, -19080(%rbp)
	movl	$5, -19084(%rbp)
	movl	$5, -19088(%rbp)
	movl	$5, -19092(%rbp)
	movl	$5, -19096(%rbp)
	movl	$5, -19100(%rbp)
	movl	$5, -19104(%rbp)
	movl	$5, -19108(%rbp)
	movl	$5, -19112(%rbp)
	movl	$5, -19116(%rbp)
	movl	$5, -19120(%rbp)
	movl	$5, -19124(%rbp)
	movl	$5, -19128(%rbp)
	movl	$5, -19132(%rbp)
	movl	$5, -19136(%rbp)
	movl	$5, -19140(%rbp)
	movl	$5, -19144(%rbp)
	movl	$5, -19148(%rbp)
	movl	$5, -19152(%rbp)
	movl	$5, -19156(%rbp)
	movl	$5, -19160(%rbp)
	movl	$5, -19164(%rbp)
	movl	$5, -19168(%rbp)
	movl	$5, -19172(%rbp)
	movl	$5, -19176(%rbp)
	movl	$5, -19180(%rbp)
	movl	$5, -19184(%rbp)
	movl	$5, -19188(%rbp)
	movl	$5, -19192(%rbp)
	movl	$5, -19196(%rbp)
	movl	$5, -19200(%rbp)
	movl	$5, -19204(%rbp)
	movl	$5, -19208(%rbp)
	movl	$5, -19212(%rbp)
	movl	$5, -19216(%rbp)
	movl	$5, -19220(%rbp)
	movl	$5, -19224(%rbp)
	movl	$5, -19228(%rbp)
	movl	$5, -19232(%rbp)
	movl	$5, -19236(%rbp)
	movl	$5, -19240(%rbp)
	movl	$5, -19244(%rbp)
	movl	$5, -19248(%rbp)
	movl	$5, -19252(%rbp)
	movl	$5, -19256(%rbp)
	movl	$5, -19260(%rbp)
	movl	$5, -19264(%rbp)
	movl	$5, -19268(%rbp)
	movl	$5, -19272(%rbp)
	movl	$5, -19276(%rbp)
	movl	$5, -19280(%rbp)
	movl	$5, -19284(%rbp)
	movl	$5, -19288(%rbp)
	movl	$5, -19292(%rbp)
	movl	$5, -19296(%rbp)
	movl	$5, -19300(%rbp)
	movl	$5, -19304(%rbp)
	movl	$5, -19308(%rbp)
	movl	$5, -19312(%rbp)
	movl	$5, -19316(%rbp)
	movl	$5, -19320(%rbp)
	movl	$5, -19324(%rbp)
	movl	$5, -19328(%rbp)
	movl	$5, -19332(%rbp)
	movl	$5, -19336(%rbp)
	movl	$5, -19340(%rbp)
	movl	$5, -19344(%rbp)
	movl	$5, -19348(%rbp)
	movl	$5, -19352(%rbp)
	movl	$5, -19356(%rbp)
	movl	$5, -19360(%rbp)
	movl	$5, -19364(%rbp)
	movl	$5, -19368(%rbp)
	movl	$5, -19372(%rbp)
	movl	$5, -19376(%rbp)
	movl	$5, -19380(%rbp)
	movl	$5, -19384(%rbp)
	movl	$5, -19388(%rbp)
	movl	$5, -19392(%rbp)
	movl	$5, -19396(%rbp)
	movl	$5, -19400(%rbp)
	movl	$5, -19404(%rbp)
	movl	$5, -19408(%rbp)
	movl	$5, -19412(%rbp)
	movl	$5, -19416(%rbp)
	movl	$5, -19420(%rbp)
	movl	$5, -19424(%rbp)
	movl	$5, -19428(%rbp)
	movl	$5, -19432(%rbp)
	movl	$5, -19436(%rbp)
	movl	$5, -19440(%rbp)
	movl	$5, -19444(%rbp)
	movl	$5, -19448(%rbp)
	movl	$5, -19452(%rbp)
	movl	$5, -19456(%rbp)
	movl	$5, -19460(%rbp)
	movl	$5, -19464(%rbp)
	movl	$5, -19468(%rbp)
	movl	$5, -19472(%rbp)
	movl	$5, -19476(%rbp)
	movl	$5, -19480(%rbp)
	movl	$5, -19484(%rbp)
	movl	$5, -19488(%rbp)
	movl	$5, -19492(%rbp)
	movl	$5, -19496(%rbp)
	movl	$5, -19500(%rbp)
	movl	$5, -19504(%rbp)
	movl	$5, -19508(%rbp)
	movl	$5, -19512(%rbp)
	movl	$5, -19516(%rbp)
	movl	$5, -19520(%rbp)
	movl	$5, -19524(%rbp)
	movl	$5, -19528(%rbp)
	movl	$5, -19532(%rbp)
	movl	$5, -19536(%rbp)
	movl	$5, -19540(%rbp)
	movl	$5, -19544(%rbp)
	movl	$5, -19548(%rbp)
	movl	$5, -19552(%rbp)
	movl	$5, -19556(%rbp)
	movl	$5, -19560(%rbp)
	movl	$5, -19564(%rbp)
	movl	$5, -19568(%rbp)
	movl	$5, -19572(%rbp)
	movl	$5, -19576(%rbp)
	movl	$5, -19580(%rbp)
	movl	$5, -19584(%rbp)
	movl	$5, -19588(%rbp)
	movl	$5, -19592(%rbp)
	movl	$5, -19596(%rbp)
	movl	$5, -19600(%rbp)
	movl	$5, -19604(%rbp)
	movl	$5, -19608(%rbp)
	movl	$5, -19612(%rbp)
	movl	$5, -19616(%rbp)
	movl	$5, -19620(%rbp)
	movl	$5, -19624(%rbp)
	movl	$5, -19628(%rbp)
	movl	$5, -19632(%rbp)
	movl	$5, -19636(%rbp)
	movl	$5, -19640(%rbp)
	movl	$5, -19644(%rbp)
	movl	$5, -19648(%rbp)
	movl	$5, -19652(%rbp)
	movl	$5, -19656(%rbp)
	movl	$5, -19660(%rbp)
	movl	$5, -19664(%rbp)
	movl	$5, -19668(%rbp)
	movl	$5, -19672(%rbp)
	movl	$5, -19676(%rbp)
	movl	$5, -19680(%rbp)
	movl	$5, -19684(%rbp)
	movl	$5, -19688(%rbp)
	movl	$5, -19692(%rbp)
	movl	$5, -19696(%rbp)
	movl	$5, -19700(%rbp)
	movl	$5, -19704(%rbp)
	movl	$5, -19708(%rbp)
	movl	$5, -19712(%rbp)
	movl	$5, -19716(%rbp)
	movl	$5, -19720(%rbp)
	movl	$5, -19724(%rbp)
	movl	$5, -19728(%rbp)
	movl	$5, -19732(%rbp)
	movl	$5, -19736(%rbp)
	movl	$5, -19740(%rbp)
	movl	$5, -19744(%rbp)
	movl	$5, -19748(%rbp)
	movl	$5, -19752(%rbp)
	movl	$5, -19756(%rbp)
	movl	$5, -19760(%rbp)
	movl	$5, -19764(%rbp)
	movl	$5, -19768(%rbp)
	movl	$5, -19772(%rbp)
	movl	$5, -19776(%rbp)
	movl	$5, -19780(%rbp)
	movl	$5, -19784(%rbp)
	movl	$5, -19788(%rbp)
	movl	$5, -19792(%rbp)
	movl	$5, -19796(%rbp)
	movl	$5, -19800(%rbp)
	movl	$5, -19804(%rbp)
	movl	$5, -19808(%rbp)
	movl	$5, -19812(%rbp)
	movl	$5, -19816(%rbp)
	movl	$5, -19820(%rbp)
	movl	$5, -19824(%rbp)
	movl	$5, -19828(%rbp)
	movl	$5, -19832(%rbp)
	movl	$5, -19836(%rbp)
	movl	$5, -19840(%rbp)
	movl	$5, -19844(%rbp)
	movl	$5, -19848(%rbp)
	movl	$5, -19852(%rbp)
	movl	$5, -19856(%rbp)
	movl	$5, -19860(%rbp)
	movl	$5, -19864(%rbp)
	movl	$5, -19868(%rbp)
	movl	$5, -19872(%rbp)
	movl	$5, -19876(%rbp)
	movl	$5, -19880(%rbp)
	movl	$5, -19884(%rbp)
	movl	$5, -19888(%rbp)
	movl	$5, -19892(%rbp)
	movl	$5, -19896(%rbp)
	movl	$5, -19900(%rbp)
	movl	$5, -19904(%rbp)
	movl	$5, -19908(%rbp)
	movl	$5, -19912(%rbp)
	movl	$5, -19916(%rbp)
	movl	$5, -19920(%rbp)
	movl	$5, -19924(%rbp)
	movl	$5, -19928(%rbp)
	movl	$5, -19932(%rbp)
	movl	$5, -19936(%rbp)
	movl	$5, -19940(%rbp)
	movl	$5, -19944(%rbp)
	movl	$5, -19948(%rbp)
	movl	$5, -19952(%rbp)
	movl	$5, -19956(%rbp)
	movl	$5, -19960(%rbp)
	movl	$5, -19964(%rbp)
	movl	$5, -19968(%rbp)
	movl	$5, -19972(%rbp)
	movl	$5, -19976(%rbp)
	movl	$5, -19980(%rbp)
	movl	$5, -19984(%rbp)
	movl	$5, -19988(%rbp)
	movl	$5, -19992(%rbp)
	movl	$5, -19996(%rbp)
	movl	$5, -20000(%rbp)
	movl	$5, -20004(%rbp)
	movl	$5, -20008(%rbp)
	movl	$5, -20012(%rbp)
	movl	$5, -20016(%rbp)
	movl	$5, -20020(%rbp)
	movl	$5, -20024(%rbp)
	movl	$5, -20028(%rbp)
	movl	$5, -20032(%rbp)
	movl	$5, -20036(%rbp)
	movl	$5, -20040(%rbp)
	movl	$5, -20044(%rbp)
	movl	$5, -20048(%rbp)
	movl	$5, -20052(%rbp)
	movl	$5, -20056(%rbp)
	movl	$5, -20060(%rbp)
	movl	$5, -20064(%rbp)
	movl	$5, -20068(%rbp)
	movl	$5, -20072(%rbp)
	movl	$5, -20076(%rbp)
	movl	$5, -20080(%rbp)
	movl	$5, -20084(%rbp)
	movl	$5, -20088(%rbp)
	movl	$5, -20092(%rbp)
	movl	$5, -20096(%rbp)
	movl	$5, -20100(%rbp)
	movl	$5, -20104(%rbp)
	movl	$5, -20108(%rbp)
	movl	$5, -20112(%rbp)
	movl	$5, -20116(%rbp)
	movl	$5, -20120(%rbp)
	movl	$5, -20124(%rbp)
	movl	$5, -20128(%rbp)
	movl	$5, -20132(%rbp)
	movl	$5, -20136(%rbp)
	movl	$5, -20140(%rbp)
	movl	$5, -20144(%rbp)
	movl	$5, -20148(%rbp)
	movl	$5, -20152(%rbp)
	movl	$5, -20156(%rbp)
	movl	$5, -20160(%rbp)
	movl	$5, -20164(%rbp)
	movl	$5, -20168(%rbp)
	movl	$5, -20172(%rbp)
	movl	$5, -20176(%rbp)
	movl	$5, -20180(%rbp)
	movl	$5, -20184(%rbp)
	movl	$5, -20188(%rbp)
	movl	$5, -20192(%rbp)
	movl	$5, -20196(%rbp)
	movl	$5, -20200(%rbp)
	movl	$5, -20204(%rbp)
	movl	$5, -20208(%rbp)
	movl	$5, -20212(%rbp)
	movl	$5, -20216(%rbp)
	movl	$5, -20220(%rbp)
	movl	$5, -20224(%rbp)
	movl	$5, -20228(%rbp)
	movl	$5, -20232(%rbp)
	movl	$5, -20236(%rbp)
	movl	$5, -20240(%rbp)
	movl	$5, -20244(%rbp)
	movl	$5, -20248(%rbp)
	movl	$5, -20252(%rbp)
	movl	$5, -20256(%rbp)
	movl	$5, -20260(%rbp)
	movl	$5, -20264(%rbp)
	movl	$5, -20268(%rbp)
	movl	$5, -20272(%rbp)
	movl	$5, -20276(%rbp)
	movl	$5, -20280(%rbp)
	movl	$5, -20284(%rbp)
	movl	$5, -20288(%rbp)
	movl	$5, -20292(%rbp)
	movl	$5, -20296(%rbp)
	movl	$5, -20300(%rbp)
	movl	$5, -20304(%rbp)
	movl	$5, -20308(%rbp)
	movl	$5, -20312(%rbp)
	movl	$5, -20316(%rbp)
	movl	$5, -20320(%rbp)
	movl	$5, -20324(%rbp)
	movl	$5, -20328(%rbp)
	movl	$5, -20332(%rbp)
	movl	$5, -20336(%rbp)
	movl	$5, -20340(%rbp)
	movl	$5, -20344(%rbp)
	movl	$5, -20348(%rbp)
	movl	$5, -20352(%rbp)
	movl	$5, -20356(%rbp)
	movl	$5, -20360(%rbp)
	movl	$5, -20364(%rbp)
	movl	$5, -20368(%rbp)
	movl	$5, -20372(%rbp)
	movl	$5, -20376(%rbp)
	movl	$5, -20380(%rbp)
	movl	$5, -20384(%rbp)
	movl	$5, -20388(%rbp)
	movl	$5, -20392(%rbp)
	movl	$5, -20396(%rbp)
	movl	$5, -20400(%rbp)
	movl	$5, -20404(%rbp)
	movl	$5, -20408(%rbp)
	movl	$5, -20412(%rbp)
	movl	$5, -20416(%rbp)
	movl	$5, -20420(%rbp)
	movl	$5, -20424(%rbp)
	movl	$5, -20428(%rbp)
	movl	$5, -20432(%rbp)
	movl	$5, -20436(%rbp)
	movl	$5, -20440(%rbp)
	movl	$5, -20444(%rbp)
	movl	$5, -20448(%rbp)
	movl	$5, -20452(%rbp)
	movl	$5, -20456(%rbp)
	movl	$5, -20460(%rbp)
	movl	$5, -20464(%rbp)
	movl	$5, -20468(%rbp)
	movl	$5, -20472(%rbp)
	movl	$5, -20476(%rbp)
	movl	$5, -20480(%rbp)
	movl	$5, -20484(%rbp)
	movl	$5, -20488(%rbp)
	movl	$5, -20492(%rbp)
	movl	$5, -20496(%rbp)
	movl	$5, -20500(%rbp)
	movl	$5, -20504(%rbp)
	movl	$5, -20508(%rbp)
	movl	$5, -20512(%rbp)
	movl	$5, -20516(%rbp)
	movl	$5, -20520(%rbp)
	movl	$5, -20524(%rbp)
	movl	$5, -20528(%rbp)
	movl	$5, -20532(%rbp)
	movl	$5, -20536(%rbp)
	movl	$5, -20540(%rbp)
	movl	$5, -20544(%rbp)
	movl	$5, -20548(%rbp)
	movl	$5, -20552(%rbp)
	movl	$5, -20556(%rbp)
	movl	$5, -20560(%rbp)
	movl	$5, -20564(%rbp)
	movl	$5, -20568(%rbp)
	movl	$5, -20572(%rbp)
	movl	$5, -20576(%rbp)
	movl	$5, -20580(%rbp)
	movl	$5, -20584(%rbp)
	movl	$5, -20588(%rbp)
	movl	$5, -20592(%rbp)
	movl	$5, -20596(%rbp)
	movl	$5, -20600(%rbp)
	movl	$5, -20604(%rbp)
	movl	$5, -20608(%rbp)
	movl	$5, -20612(%rbp)
	movl	$5, -20616(%rbp)
	movl	$5, -20620(%rbp)
	movl	$5, -20624(%rbp)
	movl	$5, -20628(%rbp)
	movl	$5, -20632(%rbp)
	movl	$5, -20636(%rbp)
	movl	$5, -20640(%rbp)
	movl	$5, -20644(%rbp)
	movl	$5, -20648(%rbp)
	movl	$5, -20652(%rbp)
	movl	$5, -20656(%rbp)
	movl	$5, -20660(%rbp)
	movl	$5, -20664(%rbp)
	movl	$5, -20668(%rbp)
	movl	$5, -20672(%rbp)
	movl	$5, -20676(%rbp)
	movl	$5, -20680(%rbp)
	movl	$5, -20684(%rbp)
	movl	$5, -20688(%rbp)
	movl	$5, -20692(%rbp)
	movl	$5, -20696(%rbp)
	movl	$5, -20700(%rbp)
	movl	$5, -20704(%rbp)
	movl	$5, -20708(%rbp)
	movl	$5, -20712(%rbp)
	movl	$5, -20716(%rbp)
	movl	$5, -20720(%rbp)
	movl	$5, -20724(%rbp)
	movl	$5, -20728(%rbp)
	movl	$5, -20732(%rbp)
	movl	$5, -20736(%rbp)
	movl	$5, -20740(%rbp)
	movl	$5, -20744(%rbp)
	movl	$5, -20748(%rbp)
	movl	$5, -20752(%rbp)
	movl	$5, -20756(%rbp)
	movl	$5, -20760(%rbp)
	movl	$5, -20764(%rbp)
	movl	$5, -20768(%rbp)
	movl	$5, -20772(%rbp)
	movl	$5, -20776(%rbp)
	movl	$5, -20780(%rbp)
	movl	$5, -20784(%rbp)
	movl	$5, -20788(%rbp)
	movl	$5, -20792(%rbp)
	movl	$5, -20796(%rbp)
	movl	$5, -20800(%rbp)
	movl	$5, -20804(%rbp)
	movl	$5, -20808(%rbp)
	movl	$5, -20812(%rbp)
	movl	$5, -20816(%rbp)
	movl	$5, -20820(%rbp)
	movl	$5, -20824(%rbp)
	movl	$5, -20828(%rbp)
	movl	$5, -20832(%rbp)
	movl	$5, -20836(%rbp)
	movl	$5, -20840(%rbp)
	movl	$5, -20844(%rbp)
	movl	$5, -20848(%rbp)
	movl	$5, -20852(%rbp)
	movl	$5, -20856(%rbp)
	movl	$5, -20860(%rbp)
	movl	$5, -20864(%rbp)
	movl	$5, -20868(%rbp)
	movl	$5, -20872(%rbp)
	movl	$5, -20876(%rbp)
	movl	$5, -20880(%rbp)
	movl	$5, -20884(%rbp)
	movl	$5, -20888(%rbp)
	movl	$5, -20892(%rbp)
	movl	$5, -20896(%rbp)
	movl	$5, -20900(%rbp)
	movl	$5, -20904(%rbp)
	movl	$5, -20908(%rbp)
	movl	$5, -20912(%rbp)
	movl	$5, -20916(%rbp)
	movl	$5, -20920(%rbp)
	movl	$5, -20924(%rbp)
	movl	$5, -20928(%rbp)
	movl	$5, -20932(%rbp)
	movl	$5, -20936(%rbp)
	movl	$5, -20940(%rbp)
	movl	$5, -20944(%rbp)
	movl	$5, -20948(%rbp)
	movl	$5, -20952(%rbp)
	movl	$5, -20956(%rbp)
	movl	$5, -20960(%rbp)
	movl	$5, -20964(%rbp)
	movl	$5, -20968(%rbp)
	movl	$5, -20972(%rbp)
	movl	$5, -20976(%rbp)
	movl	$5, -20980(%rbp)
	movl	$5, -20984(%rbp)
	movl	$5, -20988(%rbp)
	movl	$5, -20992(%rbp)
	movl	$5, -20996(%rbp)
	movl	$5, -21000(%rbp)
	movl	$5, -21004(%rbp)
	movl	$5, -21008(%rbp)
	movl	$5, -21012(%rbp)
	movl	$5, -21016(%rbp)
	movl	$5, -21020(%rbp)
	movl	$5, -21024(%rbp)
	movl	$5, -21028(%rbp)
	movl	$5, -21032(%rbp)
	movl	$5, -21036(%rbp)
	movl	$5, -21040(%rbp)
	movl	$5, -21044(%rbp)
	movl	$5, -21048(%rbp)
	movl	$5, -21052(%rbp)
	movl	$5, -21056(%rbp)
	movl	$5, -21060(%rbp)
	movl	$5, -21064(%rbp)
	movl	$5, -21068(%rbp)
	movl	$5, -21072(%rbp)
	movl	$5, -21076(%rbp)
	movl	$5, -21080(%rbp)
	movl	$5, -21084(%rbp)
	movl	$5, -21088(%rbp)
	movl	$5, -21092(%rbp)
	movl	$5, -21096(%rbp)
	movl	$5, -21100(%rbp)
	movl	$5, -21104(%rbp)
	movl	$5, -21108(%rbp)
	movl	$5, -21112(%rbp)
	movl	$5, -21116(%rbp)
	movl	$5, -21120(%rbp)
	movl	$5, -21124(%rbp)
	movl	$5, -21128(%rbp)
	movl	$5, -21132(%rbp)
	movl	$5, -21136(%rbp)
	movl	$5, -21140(%rbp)
	movl	$5, -21144(%rbp)
	movl	$5, -21148(%rbp)
	movl	$5, -21152(%rbp)
	movl	$5, -21156(%rbp)
	movl	$5, -21160(%rbp)
	movl	$5, -21164(%rbp)
	movl	$5, -21168(%rbp)
	movl	$5, -21172(%rbp)
	movl	$5, -21176(%rbp)
	movl	$5, -21180(%rbp)
	movl	$5, -21184(%rbp)
	movl	$5, -21188(%rbp)
	movl	$5, -21192(%rbp)
	movl	$5, -21196(%rbp)
	movl	$5, -21200(%rbp)
	movl	$5, -21204(%rbp)
	movl	$5, -21208(%rbp)
	movl	$5, -21212(%rbp)
	movl	$5, -21216(%rbp)
	movl	$5, -21220(%rbp)
	movl	$5, -21224(%rbp)
	movl	$5, -21228(%rbp)
	movl	$5, -21232(%rbp)
	movl	$5, -21236(%rbp)
	movl	$5, -21240(%rbp)
	movl	$5, -21244(%rbp)
	movl	$5, -21248(%rbp)
	movl	$5, -21252(%rbp)
	movl	$5, -21256(%rbp)
	movl	$5, -21260(%rbp)
	movl	$5, -21264(%rbp)
	movl	$5, -21268(%rbp)
	movl	$5, -21272(%rbp)
	movl	$5, -21276(%rbp)
	movl	$5, -21280(%rbp)
	movl	$5, -21284(%rbp)
	movl	$5, -21288(%rbp)
	movl	$5, -21292(%rbp)
	movl	$5, -21296(%rbp)
	movl	$5, -21300(%rbp)
	movl	$5, -21304(%rbp)
	movl	$5, -21308(%rbp)
	movl	$5, -21312(%rbp)
	movl	$5, -21316(%rbp)
	movl	$5, -21320(%rbp)
	movl	$5, -21324(%rbp)
	movl	$5, -21328(%rbp)
	movl	$5, -21332(%rbp)
	movl	$5, -21336(%rbp)
	movl	$5, -21340(%rbp)
	movl	$5, -21344(%rbp)
	movl	$5, -21348(%rbp)
	movl	$5, -21352(%rbp)
	movl	$5, -21356(%rbp)
	movl	$5, -21360(%rbp)
	movl	$5, -21364(%rbp)
	movl	$5, -21368(%rbp)
	movl	$5, -21372(%rbp)
	movl	$5, -21376(%rbp)
	movl	$5, -21380(%rbp)
	movl	$5, -21384(%rbp)
	movl	$5, -21388(%rbp)
	movl	$5, -21392(%rbp)
	movl	$5, -21396(%rbp)
	movl	$5, -21400(%rbp)
	movl	$5, -21404(%rbp)
	movl	$5, -21408(%rbp)
	movl	$5, -21412(%rbp)
	movl	$5, -21416(%rbp)
	movl	$5, -21420(%rbp)
	movl	$5, -21424(%rbp)
	movl	$5, -21428(%rbp)
	movl	$5, -21432(%rbp)
	movl	$5, -21436(%rbp)
	movl	$5, -21440(%rbp)
	movl	$5, -21444(%rbp)
	movl	$5, -21448(%rbp)
	movl	$5, -21452(%rbp)
	movl	$5, -21456(%rbp)
	movl	$5, -21460(%rbp)
	movl	$5, -21464(%rbp)
	movl	$5, -21468(%rbp)
	movl	$5, -21472(%rbp)
	movl	$5, -21476(%rbp)
	movl	$5, -21480(%rbp)
	movl	$5, -21484(%rbp)
	movl	$5, -21488(%rbp)
	movl	$5, -21492(%rbp)
	movl	$5, -21496(%rbp)
	movl	$5, -21500(%rbp)
	movl	$5, -21504(%rbp)
	movl	$5, -21508(%rbp)
	movl	$5, -21512(%rbp)
	movl	$5, -21516(%rbp)
	movl	$5, -21520(%rbp)
	movl	$5, -21524(%rbp)
	movl	$5, -21528(%rbp)
	movl	$5, -21532(%rbp)
	movl	$5, -21536(%rbp)
	movl	$5, -21540(%rbp)
	movl	$5, -21544(%rbp)
	movl	$5, -21548(%rbp)
	movl	$5, -21552(%rbp)
	movl	$5, -21556(%rbp)
	movl	$5, -21560(%rbp)
	movl	$5, -21564(%rbp)
	movl	$5, -21568(%rbp)
	movl	$5, -21572(%rbp)
	movl	$5, -21576(%rbp)
	movl	$5, -21580(%rbp)
	movl	$5, -21584(%rbp)
	movl	$5, -21588(%rbp)
	movl	$5, -21592(%rbp)
	movl	$5, -21596(%rbp)
	movl	$5, -21600(%rbp)
	movl	$5, -21604(%rbp)
	movl	$5, -21608(%rbp)
	movl	$5, -21612(%rbp)
	movl	$5, -21616(%rbp)
	movl	$5, -21620(%rbp)
	movl	$5, -21624(%rbp)
	movl	$5, -21628(%rbp)
	movl	$5, -21632(%rbp)
	movl	$5, -21636(%rbp)
	movl	$5, -21640(%rbp)
	movl	$5, -21644(%rbp)
	movl	$5, -21648(%rbp)
	movl	$5, -21652(%rbp)
	movl	$5, -21656(%rbp)
	movl	$5, -21660(%rbp)
	movl	$5, -21664(%rbp)
	movl	$5, -21668(%rbp)
	movl	$5, -21672(%rbp)
	movl	$5, -21676(%rbp)
	movl	$5, -21680(%rbp)
	movl	$5, -21684(%rbp)
	movl	$5, -21688(%rbp)
	movl	$5, -21692(%rbp)
	movl	$5, -21696(%rbp)
	movl	$5, -21700(%rbp)
	movl	$5, -21704(%rbp)
	movl	$5, -21708(%rbp)
	movl	$5, -21712(%rbp)
	movl	$5, -21716(%rbp)
	movl	$5, -21720(%rbp)
	movl	$5, -21724(%rbp)
	movl	$5, -21728(%rbp)
	movl	$5, -21732(%rbp)
	movl	$5, -21736(%rbp)
	movl	$5, -21740(%rbp)
	movl	$5, -21744(%rbp)
	movl	$5, -21748(%rbp)
	movl	$5, -21752(%rbp)
	movl	$5, -21756(%rbp)
	movl	$5, -21760(%rbp)
	movl	$5, -21764(%rbp)
	movl	$5, -21768(%rbp)
	movl	$5, -21772(%rbp)
	movl	$5, -21776(%rbp)
	movl	$5, -21780(%rbp)
	movl	$5, -21784(%rbp)
	movl	$5, -21788(%rbp)
	movl	$5, -21792(%rbp)
	movl	$5, -21796(%rbp)
	movl	$5, -21800(%rbp)
	movl	$5, -21804(%rbp)
	movl	$5, -21808(%rbp)
	movl	$5, -21812(%rbp)
	movl	$5, -21816(%rbp)
	movl	$5, -21820(%rbp)
	movl	$5, -21824(%rbp)
	movl	$5, -21828(%rbp)
	movl	$5, -21832(%rbp)
	movl	$5, -21836(%rbp)
	movl	$5, -21840(%rbp)
	movl	$5, -21844(%rbp)
	movl	$5, -21848(%rbp)
	movl	$5, -21852(%rbp)
	movl	$5, -21856(%rbp)
	movl	$5, -21860(%rbp)
	movl	$5, -21864(%rbp)
	movl	$5, -21868(%rbp)
	movl	$5, -21872(%rbp)
	movl	$5, -21876(%rbp)
	movl	$5, -21880(%rbp)
	movl	$5, -21884(%rbp)
	movl	$5, -21888(%rbp)
	movl	$5, -21892(%rbp)
	movl	$5, -21896(%rbp)
	movl	$5, -21900(%rbp)
	movl	$5, -21904(%rbp)
	movl	$5, -21908(%rbp)
	movl	$5, -21912(%rbp)
	movl	$5, -21916(%rbp)
	movl	$5, -21920(%rbp)
	movl	$5, -21924(%rbp)
	movl	$5, -21928(%rbp)
	movl	$5, -21932(%rbp)
	movl	$5, -21936(%rbp)
	movl	$5, -21940(%rbp)
	movl	$5, -21944(%rbp)
	movl	$5, -21948(%rbp)
	movl	$5, -21952(%rbp)
	movl	$5, -21956(%rbp)
	movl	$5, -21960(%rbp)
	movl	$5, -21964(%rbp)
	movl	$5, -21968(%rbp)
	movl	$5, -21972(%rbp)
	movl	$5, -21976(%rbp)
	movl	$5, -21980(%rbp)
	movl	$5, -21984(%rbp)
	movl	$5, -21988(%rbp)
	movl	$5, -21992(%rbp)
	movl	$5, -21996(%rbp)
	movl	$5, -22000(%rbp)
	movl	$5, -22004(%rbp)
	movl	$5, -22008(%rbp)
	movl	$5, -22012(%rbp)
	movl	$5, -22016(%rbp)
	movl	$5, -22020(%rbp)
	movl	$5, -22024(%rbp)
	movl	$5, -22028(%rbp)
	movl	$5, -22032(%rbp)
	movl	$5, -22036(%rbp)
	movl	$5, -22040(%rbp)
	movl	$5, -22044(%rbp)
	movl	$5, -22048(%rbp)
	movl	$5, -22052(%rbp)
	movl	$5, -22056(%rbp)
	movl	$5, -22060(%rbp)
	movl	$5, -22064(%rbp)
	movl	$5, -22068(%rbp)
	movl	$5, -22072(%rbp)
	movl	$5, -22076(%rbp)
	movl	$5, -22080(%rbp)
	movl	$5, -22084(%rbp)
	movl	$5, -22088(%rbp)
	movl	$5, -22092(%rbp)
	movl	$5, -22096(%rbp)
	movl	$5, -22100(%rbp)
	movl	$5, -22104(%rbp)
	movl	$5, -22108(%rbp)
	movl	$5, -22112(%rbp)
	movl	$5, -22116(%rbp)
	movl	$5, -22120(%rbp)
	movl	$5, -22124(%rbp)
	movl	$5, -22128(%rbp)
	movl	$5, -22132(%rbp)
	movl	$5, -22136(%rbp)
	movl	$5, -22140(%rbp)
	movl	$5, -22144(%rbp)
	movl	$5, -22148(%rbp)
	movl	$5, -22152(%rbp)
	movl	$5, -22156(%rbp)
	movl	$5, -22160(%rbp)
	movl	$5, -22164(%rbp)
	movl	$5, -22168(%rbp)
	movl	$5, -22172(%rbp)
	movl	$5, -22176(%rbp)
	movl	$5, -22180(%rbp)
	movl	$5, -22184(%rbp)
	movl	$5, -22188(%rbp)
	movl	$5, -22192(%rbp)
	movl	$5, -22196(%rbp)
	movl	$5, -22200(%rbp)
	movl	$5, -22204(%rbp)
	movl	$5, -22208(%rbp)
	movl	$5, -22212(%rbp)
	movl	$5, -22216(%rbp)
	movl	$5, -22220(%rbp)
	movl	$5, -22224(%rbp)
	movl	$5, -22228(%rbp)
	movl	$5, -22232(%rbp)
	movl	$5, -22236(%rbp)
	movl	$5, -22240(%rbp)
	movl	$5, -22244(%rbp)
	movl	$5, -22248(%rbp)
	movl	$5, -22252(%rbp)
	movl	$5, -22256(%rbp)
	movl	$5, -22260(%rbp)
	movl	$5, -22264(%rbp)
	movl	$5, -22268(%rbp)
	movl	$5, -22272(%rbp)
	movl	$5, -22276(%rbp)
	movl	$5, -22280(%rbp)
	movl	$5, -22284(%rbp)
	movl	$5, -22288(%rbp)
	movl	$5, -22292(%rbp)
	movl	$5, -22296(%rbp)
	movl	$5, -22300(%rbp)
	movl	$5, -22304(%rbp)
	movl	$5, -22308(%rbp)
	movl	$5, -22312(%rbp)
	movl	$5, -22316(%rbp)
	movl	$5, -22320(%rbp)
	movl	$5, -22324(%rbp)
	movl	$5, -22328(%rbp)
	movl	$5, -22332(%rbp)
	movl	$5, -22336(%rbp)
	movl	$5, -22340(%rbp)
	movl	$5, -22344(%rbp)
	movl	$5, -22348(%rbp)
	movl	$5, -22352(%rbp)
	movl	$5, -22356(%rbp)
	movl	$5, -22360(%rbp)
	movl	$5, -22364(%rbp)
	movl	$5, -22368(%rbp)
	movl	$5, -22372(%rbp)
	movl	$5, -22376(%rbp)
	movl	$5, -22380(%rbp)
	movl	$5, -22384(%rbp)
	movl	$5, -22388(%rbp)
	movl	$5, -22392(%rbp)
	movl	$5, -22396(%rbp)
	movl	$5, -22400(%rbp)
	movl	$5, -22404(%rbp)
	movl	$5, -22408(%rbp)
	movl	$5, -22412(%rbp)
	movl	$5, -22416(%rbp)
	movl	$5, -22420(%rbp)
	movl	$5, -22424(%rbp)
	movl	$5, -22428(%rbp)
	movl	$5, -22432(%rbp)
	movl	$5, -22436(%rbp)
	movl	$5, -22440(%rbp)
	movl	$5, -22444(%rbp)
	movl	$5, -22448(%rbp)
	movl	$5, -22452(%rbp)
	movl	$5, -22456(%rbp)
	movl	$5, -22460(%rbp)
	movl	$5, -22464(%rbp)
	movl	$5, -22468(%rbp)
	movl	$5, -22472(%rbp)
	movl	$5, -22476(%rbp)
	movl	$5, -22480(%rbp)
	movl	$5, -22484(%rbp)
	movl	$5, -22488(%rbp)
	movl	$5, -22492(%rbp)
	movl	$5, -22496(%rbp)
	movl	$5, -22500(%rbp)
	movl	$5, -22504(%rbp)
	movl	$5, -22508(%rbp)
	movl	$5, -22512(%rbp)
	movl	$5, -22516(%rbp)
	movl	$5, -22520(%rbp)
	movl	$5, -22524(%rbp)
	movl	$5, -22528(%rbp)
	movl	$5, -22532(%rbp)
	movl	$5, -22536(%rbp)
	movl	$5, -22540(%rbp)
	movl	$5, -22544(%rbp)
	movl	$5, -22548(%rbp)
	movl	$5, -22552(%rbp)
	movl	$5, -22556(%rbp)
	movl	$5, -22560(%rbp)
	movl	$5, -22564(%rbp)
	movl	$5, -22568(%rbp)
	movl	$5, -22572(%rbp)
	movl	$5, -22576(%rbp)
	movl	$5, -22580(%rbp)
	movl	$5, -22584(%rbp)
	movl	$5, -22588(%rbp)
	movl	$5, -22592(%rbp)
	movl	$5, -22596(%rbp)
	movl	$5, -22600(%rbp)
	movl	$5, -22604(%rbp)
	movl	$5, -22608(%rbp)
	movl	$5, -22612(%rbp)
	movl	$5, -22616(%rbp)
	movl	$5, -22620(%rbp)
	movl	$5, -22624(%rbp)
	movl	$5, -22628(%rbp)
	movl	$5, -22632(%rbp)
	movl	$5, -22636(%rbp)
	movl	$5, -22640(%rbp)
	movl	$5, -22644(%rbp)
	movl	$5, -22648(%rbp)
	movl	$5, -22652(%rbp)
	movl	$5, -22656(%rbp)
	movl	$5, -22660(%rbp)
	movl	$5, -22664(%rbp)
	movl	$5, -22668(%rbp)
	movl	$5, -22672(%rbp)
	movl	$5, -22676(%rbp)
	movl	$5, -22680(%rbp)
	movl	$5, -22684(%rbp)
	movl	$5, -22688(%rbp)
	movl	$5, -22692(%rbp)
	movl	$5, -22696(%rbp)
	movl	$5, -22700(%rbp)
	movl	$5, -22704(%rbp)
	movl	$5, -22708(%rbp)
	movl	$5, -22712(%rbp)
	movl	$5, -22716(%rbp)
	movl	$5, -22720(%rbp)
	movl	$5, -22724(%rbp)
	movl	$5, -22728(%rbp)
	movl	$5, -22732(%rbp)
	movl	$5, -22736(%rbp)
	movl	$5, -22740(%rbp)
	movl	$5, -22744(%rbp)
	movl	$5, -22748(%rbp)
	movl	$5, -22752(%rbp)
	movl	$5, -22756(%rbp)
	movl	$5, -22760(%rbp)
	movl	$5, -22764(%rbp)
	movl	$5, -22768(%rbp)
	movl	$5, -22772(%rbp)
	movl	$5, -22776(%rbp)
	movl	$5, -22780(%rbp)
	movl	$5, -22784(%rbp)
	movl	$5, -22788(%rbp)
	movl	$5, -22792(%rbp)
	movl	$5, -22796(%rbp)
	movl	$5, -22800(%rbp)
	movl	$5, -22804(%rbp)
	movl	$5, -22808(%rbp)
	movl	$5, -22812(%rbp)
	movl	$5, -22816(%rbp)
	movl	$5, -22820(%rbp)
	movl	$5, -22824(%rbp)
	movl	$5, -22828(%rbp)
	movl	$5, -22832(%rbp)
	movl	$5, -22836(%rbp)
	movl	$5, -22840(%rbp)
	movl	$5, -22844(%rbp)
	movl	$5, -22848(%rbp)
	movl	$5, -22852(%rbp)
	movl	$5, -22856(%rbp)
	movl	$5, -22860(%rbp)
	movl	$5, -22864(%rbp)
	movl	$5, -22868(%rbp)
	movl	$5, -22872(%rbp)
	movl	$5, -22876(%rbp)
	movl	$5, -22880(%rbp)
	movl	$5, -22884(%rbp)
	movl	$5, -22888(%rbp)
	movl	$5, -22892(%rbp)
	movl	$5, -22896(%rbp)
	movl	$5, -22900(%rbp)
	movl	$5, -22904(%rbp)
	movl	$5, -22908(%rbp)
	movl	$5, -22912(%rbp)
	movl	$5, -22916(%rbp)
	movl	$5, -22920(%rbp)
	movl	$5, -22924(%rbp)
	movl	$5, -22928(%rbp)
	movl	$5, -22932(%rbp)
	movl	$5, -22936(%rbp)
	movl	$5, -22940(%rbp)
	movl	$5, -22944(%rbp)
	movl	$5, -22948(%rbp)
	movl	$5, -22952(%rbp)
	movl	$5, -22956(%rbp)
	movl	$5, -22960(%rbp)
	movl	$5, -22964(%rbp)
	movl	$5, -22968(%rbp)
	movl	$5, -22972(%rbp)
	movl	$5, -22976(%rbp)
	movl	$5, -22980(%rbp)
	movl	$5, -22984(%rbp)
	movl	$5, -22988(%rbp)
	movl	$5, -22992(%rbp)
	movl	$5, -22996(%rbp)
	movl	$5, -23000(%rbp)
	movl	$5, -23004(%rbp)
	movl	$5, -23008(%rbp)
	movl	$5, -23012(%rbp)
	movl	$5, -23016(%rbp)
	movl	$5, -23020(%rbp)
	movl	$5, -23024(%rbp)
	movl	$5, -23028(%rbp)
	movl	$5, -23032(%rbp)
	movl	$5, -23036(%rbp)
	movl	$5, -23040(%rbp)
	movl	$5, -23044(%rbp)
	movl	$5, -23048(%rbp)
	movl	$5, -23052(%rbp)
	movl	$5, -23056(%rbp)
	movl	$5, -23060(%rbp)
	movl	$5, -23064(%rbp)
	movl	$5, -23068(%rbp)
	movl	$5, -23072(%rbp)
	movl	$5, -23076(%rbp)
	movl	$5, -23080(%rbp)
	movl	$5, -23084(%rbp)
	movl	$5, -23088(%rbp)
	movl	$5, -23092(%rbp)
	movl	$5, -23096(%rbp)
	movl	$5, -23100(%rbp)
	movl	$5, -23104(%rbp)
	movl	$5, -23108(%rbp)
	movl	$5, -23112(%rbp)
	movl	$5, -23116(%rbp)
	movl	$5, -23120(%rbp)
	movl	$5, -23124(%rbp)
	movl	$5, -23128(%rbp)
	movl	$5, -23132(%rbp)
	movl	$5, -23136(%rbp)
	movl	$5, -23140(%rbp)
	movl	$5, -23144(%rbp)
	movl	$5, -23148(%rbp)
	movl	$5, -23152(%rbp)
	movl	$5, -23156(%rbp)
	movl	$5, -23160(%rbp)
	movl	$5, -23164(%rbp)
	movl	$5, -23168(%rbp)
	movl	$5, -23172(%rbp)
	movl	$5, -23176(%rbp)
	movl	$5, -23180(%rbp)
	movl	$5, -23184(%rbp)
	movl	$5, -23188(%rbp)
	movl	$5, -23192(%rbp)
	movl	$5, -23196(%rbp)
	movl	$5, -23200(%rbp)
	movl	$5, -23204(%rbp)
	movl	$5, -23208(%rbp)
	movl	$5, -23212(%rbp)
	movl	$5, -23216(%rbp)
	movl	$5, -23220(%rbp)
	movl	$5, -23224(%rbp)
	movl	$5, -23228(%rbp)
	movl	$5, -23232(%rbp)
	movl	$5, -23236(%rbp)
	movl	$5, -23240(%rbp)
	movl	$5, -23244(%rbp)
	movl	$5, -23248(%rbp)
	movl	$5, -23252(%rbp)
	movl	$5, -23256(%rbp)
	movl	$5, -23260(%rbp)
	movl	$5, -23264(%rbp)
	movl	$5, -23268(%rbp)
	movl	$5, -23272(%rbp)
	movl	$5, -23276(%rbp)
	movl	$5, -23280(%rbp)
	movl	$5, -23284(%rbp)
	movl	$5, -23288(%rbp)
	movl	$5, -23292(%rbp)
	movl	$5, -23296(%rbp)
	movl	$5, -23300(%rbp)
	movl	$5, -23304(%rbp)
	movl	$5, -23308(%rbp)
	movl	$5, -23312(%rbp)
	movl	$5, -23316(%rbp)
	movl	$5, -23320(%rbp)
	movl	$5, -23324(%rbp)
	movl	$5, -23328(%rbp)
	movl	$5, -23332(%rbp)
	movl	$5, -23336(%rbp)
	movl	$5, -23340(%rbp)
	movl	$5, -23344(%rbp)
	movl	$5, -23348(%rbp)
	movl	$5, -23352(%rbp)
	movl	$5, -23356(%rbp)
	movl	$5, -23360(%rbp)
	movl	$5, -23364(%rbp)
	movl	$5, -23368(%rbp)
	movl	$5, -23372(%rbp)
	movl	$5, -23376(%rbp)
	movl	$5, -23380(%rbp)
	movl	$5, -23384(%rbp)
	movl	$5, -23388(%rbp)
	movl	$5, -23392(%rbp)
	movl	$5, -23396(%rbp)
	movl	$5, -23400(%rbp)
	movl	$5, -23404(%rbp)
	movl	$5, -23408(%rbp)
	movl	$5, -23412(%rbp)
	movl	$5, -23416(%rbp)
	movl	$5, -23420(%rbp)
	movl	$5, -23424(%rbp)
	movl	$5, -23428(%rbp)
	movl	$5, -23432(%rbp)
	movl	$5, -23436(%rbp)
	movl	$5, -23440(%rbp)
	movl	$5, -23444(%rbp)
	movl	$5, -23448(%rbp)
	movl	$5, -23452(%rbp)
	movl	$5, -23456(%rbp)
	movl	$5, -23460(%rbp)
	movl	$5, -23464(%rbp)
	movl	$5, -23468(%rbp)
	movl	$5, -23472(%rbp)
	movl	$5, -23476(%rbp)
	movl	$5, -23480(%rbp)
	movl	$5, -23484(%rbp)
	movl	$5, -23488(%rbp)
	movl	$5, -23492(%rbp)
	movl	$5, -23496(%rbp)
	movl	$5, -23500(%rbp)
	movl	$5, -23504(%rbp)
	movl	$5, -23508(%rbp)
	movl	$5, -23512(%rbp)
	movl	$5, -23516(%rbp)
	movl	$5, -23520(%rbp)
	movl	$5, -23524(%rbp)
	movl	$5, -23528(%rbp)
	movl	$5, -23532(%rbp)
	movl	$5, -23536(%rbp)
	movl	$5, -23540(%rbp)
	movl	$5, -23544(%rbp)
	movl	$5, -23548(%rbp)
	movl	$5, -23552(%rbp)
	movl	$5, -23556(%rbp)
	movl	$5, -23560(%rbp)
	movl	$5, -23564(%rbp)
	movl	$5, -23568(%rbp)
	movl	$5, -23572(%rbp)
	movl	$5, -23576(%rbp)
	movl	$5, -23580(%rbp)
	movl	$5, -23584(%rbp)
	movl	$5, -23588(%rbp)
	movl	$5, -23592(%rbp)
	movl	$5, -23596(%rbp)
	movl	$5, -23600(%rbp)
	movl	$5, -23604(%rbp)
	movl	$5, -23608(%rbp)
	movl	$5, -23612(%rbp)
	movl	$5, -23616(%rbp)
	movl	$5, -23620(%rbp)
	movl	$5, -23624(%rbp)
	movl	$5, -23628(%rbp)
	movl	$5, -23632(%rbp)
	movl	$5, -23636(%rbp)
	movl	$5, -23640(%rbp)
	movl	$5, -23644(%rbp)
	movl	$5, -23648(%rbp)
	movl	$5, -23652(%rbp)
	movl	$5, -23656(%rbp)
	movl	$5, -23660(%rbp)
	movl	$5, -23664(%rbp)
	movl	$5, -23668(%rbp)
	movl	$5, -23672(%rbp)
	movl	$5, -23676(%rbp)
	movl	$5, -23680(%rbp)
	movl	$5, -23684(%rbp)
	movl	$5, -23688(%rbp)
	movl	$5, -23692(%rbp)
	movl	$5, -23696(%rbp)
	movl	$5, -23700(%rbp)
	movl	$5, -23704(%rbp)
	movl	$5, -23708(%rbp)
	movl	$5, -23712(%rbp)
	movl	$5, -23716(%rbp)
	movl	$5, -23720(%rbp)
	movl	$5, -23724(%rbp)
	movl	$5, -23728(%rbp)
	movl	$5, -23732(%rbp)
	movl	$5, -23736(%rbp)
	movl	$5, -23740(%rbp)
	movl	$5, -23744(%rbp)
	movl	$5, -23748(%rbp)
	movl	$5, -23752(%rbp)
	movl	$5, -23756(%rbp)
	movl	$5, -23760(%rbp)
	movl	$5, -23764(%rbp)
	movl	$5, -23768(%rbp)
	movl	$5, -23772(%rbp)
	movl	$5, -23776(%rbp)
	movl	$5, -23780(%rbp)
	movl	$5, -23784(%rbp)
	movl	$5, -23788(%rbp)
	movl	$5, -23792(%rbp)
	movl	$5, -23796(%rbp)
	movl	$5, -23800(%rbp)
	movl	$5, -23804(%rbp)
	movl	$5, -23808(%rbp)
	movl	$5, -23812(%rbp)
	movl	$5, -23816(%rbp)
	movl	$5, -23820(%rbp)
	movl	$5, -23824(%rbp)
	movl	$5, -23828(%rbp)
	movl	$5, -23832(%rbp)
	movl	$5, -23836(%rbp)
	movl	$5, -23840(%rbp)
	movl	$5, -23844(%rbp)
	movl	$5, -23848(%rbp)
	movl	$5, -23852(%rbp)
	movl	$5, -23856(%rbp)
	movl	$5, -23860(%rbp)
	movl	$5, -23864(%rbp)
	movl	$5, -23868(%rbp)
	movl	$5, -23872(%rbp)
	movl	$5, -23876(%rbp)
	movl	$5, -23880(%rbp)
	movl	$5, -23884(%rbp)
	movl	$5, -23888(%rbp)
	movl	$5, -23892(%rbp)
	movl	$5, -23896(%rbp)
	movl	$5, -23900(%rbp)
	movl	$5, -23904(%rbp)
	movl	$5, -23908(%rbp)
	movl	$5, -23912(%rbp)
	movl	$5, -23916(%rbp)
	movl	$5, -23920(%rbp)
	movl	$5, -23924(%rbp)
	movl	$5, -23928(%rbp)
	movl	$5, -23932(%rbp)
	movl	$5, -23936(%rbp)
	movl	$5, -23940(%rbp)
	movl	$5, -23944(%rbp)
	movl	$5, -23948(%rbp)
	movl	$5, -23952(%rbp)
	movl	$5, -23956(%rbp)
	movl	$5, -23960(%rbp)
	movl	$5, -23964(%rbp)
	movl	$5, -23968(%rbp)
	movl	$5, -23972(%rbp)
	movl	$5, -23976(%rbp)
	movl	$5, -23980(%rbp)
	movl	$5, -23984(%rbp)
	movl	$5, -23988(%rbp)
	movl	$5, -23992(%rbp)
	movl	$5, -23996(%rbp)
	movl	$5, -24000(%rbp)
	movl	$5, -24004(%rbp)
	movl	$5, -24008(%rbp)
	movl	$5, -24012(%rbp)
	movl	$5, -24016(%rbp)
	movl	$5, -24020(%rbp)
	movl	$5, -24024(%rbp)
	movl	$5, -24028(%rbp)
	movl	$5, -24032(%rbp)
	movl	$5, -24036(%rbp)
	movl	$5, -24040(%rbp)
	movl	$5, -24044(%rbp)
	movl	$5, -24048(%rbp)
	movl	$5, -24052(%rbp)
	movl	$5, -24056(%rbp)
	movl	$5, -24060(%rbp)
	movl	$5, -24064(%rbp)
	movl	$5, -24068(%rbp)
	movl	$5, -24072(%rbp)
	movl	$5, -24076(%rbp)
	movl	$5, -24080(%rbp)
	movl	$5, -24084(%rbp)
	movl	$5, -24088(%rbp)
	movl	$5, -24092(%rbp)
	movl	$5, -24096(%rbp)
	movl	$5, -24100(%rbp)
	movl	$5, -24104(%rbp)
	movl	$5, -24108(%rbp)
	movl	$5, -24112(%rbp)
	movl	$5, -24116(%rbp)
	movl	$5, -24120(%rbp)
	movl	$5, -24124(%rbp)
	movl	$5, -24128(%rbp)
	movl	$5, -24132(%rbp)
	movl	$5, -24136(%rbp)
	movl	$5, -24140(%rbp)
	movl	$5, -24144(%rbp)
	movl	$5, -24148(%rbp)
	movl	$5, -24152(%rbp)
	movl	$5, -24156(%rbp)
	movl	$5, -24160(%rbp)
	movl	$5, -24164(%rbp)
	movl	$5, -24168(%rbp)
	movl	$5, -24172(%rbp)
	movl	$5, -24176(%rbp)
	movl	$5, -24180(%rbp)
	movl	$5, -24184(%rbp)
	movl	$5, -24188(%rbp)
	movl	$5, -24192(%rbp)
	movl	$5, -24196(%rbp)
	movl	$5, -24200(%rbp)
	movl	$5, -24204(%rbp)
	movl	$5, -24208(%rbp)
	movl	$5, -24212(%rbp)
	movl	$5, -24216(%rbp)
	movl	$5, -24220(%rbp)
	movl	$5, -24224(%rbp)
	movl	$5, -24228(%rbp)
	movl	$5, -24232(%rbp)
	movl	$5, -24236(%rbp)
	movl	$5, -24240(%rbp)
	movl	$5, -24244(%rbp)
	movl	$5, -24248(%rbp)
	movl	$5, -24252(%rbp)
	movl	$5, -24256(%rbp)
	movl	$5, -24260(%rbp)
	movl	$5, -24264(%rbp)
	movl	$5, -24268(%rbp)
	movl	$5, -24272(%rbp)
	movl	$5, -24276(%rbp)
	movl	$5, -24280(%rbp)
	movl	$5, -24284(%rbp)
	movl	$5, -24288(%rbp)
	movl	$5, -24292(%rbp)
	movl	$5, -24296(%rbp)
	movl	$5, -24300(%rbp)
	movl	$5, -24304(%rbp)
	movl	$5, -24308(%rbp)
	movl	$5, -24312(%rbp)
	movl	$5, -24316(%rbp)
	movl	$5, -24320(%rbp)
	movl	$5, -24324(%rbp)
	movl	$5, -24328(%rbp)
	movl	$5, -24332(%rbp)
	movl	$5, -24336(%rbp)
	movl	$5, -24340(%rbp)
	movl	$5, -24344(%rbp)
	movl	$5, -24348(%rbp)
	movl	$5, -24352(%rbp)
	movl	$5, -24356(%rbp)
	movl	$5, -24360(%rbp)
	movl	$5, -24364(%rbp)
	movl	$5, -24368(%rbp)
	movl	$5, -24372(%rbp)
	movl	$5, -24376(%rbp)
	movl	$5, -24380(%rbp)
	movl	$5, -24384(%rbp)
	movl	$5, -24388(%rbp)
	movl	$5, -24392(%rbp)
	movl	$5, -24396(%rbp)
	movl	$5, -24400(%rbp)
	movl	$5, -24404(%rbp)
	movl	$5, -24408(%rbp)
	movl	$5, -24412(%rbp)
	movl	$5, -24416(%rbp)
	movl	$5, -24420(%rbp)
	movl	$5, -24424(%rbp)
	movl	$5, -24428(%rbp)
	movl	$5, -24432(%rbp)
	movl	$5, -24436(%rbp)
	movl	$5, -24440(%rbp)
	movl	$5, -24444(%rbp)
	movl	$5, -24448(%rbp)
	movl	$5, -24452(%rbp)
	movl	$5, -24456(%rbp)
	movl	$5, -24460(%rbp)
	movl	$5, -24464(%rbp)
	movl	$5, -24468(%rbp)
	movl	$5, -24472(%rbp)
	movl	$5, -24476(%rbp)
	movl	$5, -24480(%rbp)
	movl	$5, -24484(%rbp)
	movl	$5, -24488(%rbp)
	movl	$5, -24492(%rbp)
	movl	$5, -24496(%rbp)
	movl	$5, -24500(%rbp)
	movl	$5, -24504(%rbp)
	movl	$5, -24508(%rbp)
	movl	$5, -24512(%rbp)
	movl	$5, -24516(%rbp)
	movl	$5, -24520(%rbp)
	movl	$5, -24524(%rbp)
	movl	$5, -24528(%rbp)
	movl	$5, -24532(%rbp)
	movl	$5, -24536(%rbp)
	movl	$5, -24540(%rbp)
	movl	$5, -24544(%rbp)
	movl	$5, -24548(%rbp)
	movl	$5, -24552(%rbp)
	movl	$5, -24556(%rbp)
	movl	$5, -24560(%rbp)
	movl	$5, -24564(%rbp)
	movl	$5, -24568(%rbp)
	movl	$5, -24572(%rbp)
	movl	$5, -24576(%rbp)
	movl	$5, -24580(%rbp)
	movl	$5, -24584(%rbp)
	movl	$5, -24588(%rbp)
	movl	$5, -24592(%rbp)
	movl	$5, -24596(%rbp)
	movl	$5, -24600(%rbp)
	movl	$5, -24604(%rbp)
	movl	$5, -24608(%rbp)
	movl	$5, -24612(%rbp)
	movl	$5, -24616(%rbp)
	movl	$5, -24620(%rbp)
	movl	$5, -24624(%rbp)
	movl	$5, -24628(%rbp)
	movl	$5, -24632(%rbp)
	movl	$5, -24636(%rbp)
	movl	$5, -24640(%rbp)
	movl	$5, -24644(%rbp)
	movl	$5, -24648(%rbp)
	movl	$5, -24652(%rbp)
	movl	$5, -24656(%rbp)
	movl	$5, -24660(%rbp)
	movl	$5, -24664(%rbp)
	movl	$5, -24668(%rbp)
	movl	$5, -24672(%rbp)
	movl	$5, -24676(%rbp)
	movl	$5, -24680(%rbp)
	movl	$5, -24684(%rbp)
	movl	$5, -24688(%rbp)
	movl	$5, -24692(%rbp)
	movl	$5, -24696(%rbp)
	movl	$5, -24700(%rbp)
	movl	$5, -24704(%rbp)
	movl	$5, -24708(%rbp)
	movl	$5, -24712(%rbp)
	movl	$5, -24716(%rbp)
	movl	$5, -24720(%rbp)
	movl	$5, -24724(%rbp)
	movl	$5, -24728(%rbp)
	movl	$5, -24732(%rbp)
	movl	$5, -24736(%rbp)
	movl	$5, -24740(%rbp)
	movl	$5, -24744(%rbp)
	movl	$5, -24748(%rbp)
	movl	$5, -24752(%rbp)
	movl	$5, -24756(%rbp)
	movl	$5, -24760(%rbp)
	movl	$5, -24764(%rbp)
	movl	$5, -24768(%rbp)
	movl	$5, -24772(%rbp)
	movl	$5, -24776(%rbp)
	movl	$5, -24780(%rbp)
	movl	$5, -24784(%rbp)
	movl	$5, -24788(%rbp)
	movl	$5, -24792(%rbp)
	movl	$5, -24796(%rbp)
	movl	$5, -24800(%rbp)
	movl	$5, -24804(%rbp)
	movl	$5, -24808(%rbp)
	movl	$5, -24812(%rbp)
	movl	$5, -24816(%rbp)
	movl	$5, -24820(%rbp)
	movl	$5, -24824(%rbp)
	movl	$5, -24828(%rbp)
	movl	$5, -24832(%rbp)
	movl	$5, -24836(%rbp)
	movl	$5, -24840(%rbp)
	movl	$5, -24844(%rbp)
	movl	$5, -24848(%rbp)
	movl	$5, -24852(%rbp)
	movl	$5, -24856(%rbp)
	movl	$5, -24860(%rbp)
	movl	$5, -24864(%rbp)
	movl	$5, -24868(%rbp)
	movl	$5, -24872(%rbp)
	movl	$5, -24876(%rbp)
	movl	$5, -24880(%rbp)
	movl	$5, -24884(%rbp)
	movl	$5, -24888(%rbp)
	movl	$5, -24892(%rbp)
	movl	$5, -24896(%rbp)
	movl	$5, -24900(%rbp)
	movl	$5, -24904(%rbp)
	movl	$5, -24908(%rbp)
	movl	$5, -24912(%rbp)
	movl	$5, -24916(%rbp)
	movl	$5, -24920(%rbp)
	movl	$5, -24924(%rbp)
	movl	$5, -24928(%rbp)
	movl	$5, -24932(%rbp)
	movl	$5, -24936(%rbp)
	movl	$5, -24940(%rbp)
	movl	$5, -24944(%rbp)
	movl	$5, -24948(%rbp)
	movl	$5, -24952(%rbp)
	movl	$5, -24956(%rbp)
	movl	$5, -24960(%rbp)
	movl	$5, -24964(%rbp)
	movl	$5, -24968(%rbp)
	movl	$5, -24972(%rbp)
	movl	$5, -24976(%rbp)
	movl	$5, -24980(%rbp)
	movl	$5, -24984(%rbp)
	movl	$5, -24988(%rbp)
	movl	$5, -24992(%rbp)
	movl	$5, -24996(%rbp)
	movl	$5, -25000(%rbp)
	movl	$5, -25004(%rbp)
	movl	$5, -25008(%rbp)
	movl	$5, -25012(%rbp)
	movl	$5, -25016(%rbp)
	movl	$5, -25020(%rbp)
	movl	$5, -25024(%rbp)
	movl	$5, -25028(%rbp)
	movl	$5, -25032(%rbp)
	movl	$5, -25036(%rbp)
	movl	$5, -25040(%rbp)
	movl	$5, -25044(%rbp)
	movl	$5, -25048(%rbp)
	movl	$5, -25052(%rbp)
	movl	$5, -25056(%rbp)
	movl	$5, -25060(%rbp)
	movl	$5, -25064(%rbp)
	movl	$5, -25068(%rbp)
	movl	$5, -25072(%rbp)
	movl	$5, -25076(%rbp)
	movl	$5, -25080(%rbp)
	movl	$5, -25084(%rbp)
	movl	$5, -25088(%rbp)
	movl	$5, -25092(%rbp)
	movl	$5, -25096(%rbp)
	movl	$5, -25100(%rbp)
	movl	$5, -25104(%rbp)
	movl	$5, -25108(%rbp)
	movl	$5, -25112(%rbp)
	movl	$5, -25116(%rbp)
	movl	$5, -25120(%rbp)
	movl	$5, -25124(%rbp)
	movl	$5, -25128(%rbp)
	movl	$5, -25132(%rbp)
	movl	$5, -25136(%rbp)
	movl	$5, -25140(%rbp)
	movl	$5, -25144(%rbp)
	movl	$5, -25148(%rbp)
	movl	$5, -25152(%rbp)
	movl	$5, -25156(%rbp)
	movl	$5, -25160(%rbp)
	movl	$5, -25164(%rbp)
	movl	$5, -25168(%rbp)
	movl	$5, -25172(%rbp)
	movl	$5, -25176(%rbp)
	movl	$5, -25180(%rbp)
	movl	$5, -25184(%rbp)
	movl	$5, -25188(%rbp)
	movl	$5, -25192(%rbp)
	movl	$5, -25196(%rbp)
	movl	$5, -25200(%rbp)
	movl	$5, -25204(%rbp)
	movl	$5, -25208(%rbp)
	movl	$5, -25212(%rbp)
	movl	$5, -25216(%rbp)
	movl	$5, -25220(%rbp)
	movl	$5, -25224(%rbp)
	movl	$5, -25228(%rbp)
	movl	$5, -25232(%rbp)
	movl	$5, -25236(%rbp)
	movl	$5, -25240(%rbp)
	movl	$5, -25244(%rbp)
	movl	$5, -25248(%rbp)
	movl	$5, -25252(%rbp)
	movl	$5, -25256(%rbp)
	movl	$5, -25260(%rbp)
	movl	$5, -25264(%rbp)
	movl	$5, -25268(%rbp)
	movl	$5, -25272(%rbp)
	movl	$5, -25276(%rbp)
	movl	$5, -25280(%rbp)
	movl	$5, -25284(%rbp)
	movl	$5, -25288(%rbp)
	movl	$5, -25292(%rbp)
	movl	$5, -25296(%rbp)
	movl	$5, -25300(%rbp)
	movl	$5, -25304(%rbp)
	movl	$5, -25308(%rbp)
	movl	$5, -25312(%rbp)
	movl	$5, -25316(%rbp)
	movl	$5, -25320(%rbp)
	movl	$5, -25324(%rbp)
	movl	$5, -25328(%rbp)
	movl	$5, -25332(%rbp)
	movl	$5, -25336(%rbp)
	movl	$5, -25340(%rbp)
	movl	$5, -25344(%rbp)
	movl	$5, -25348(%rbp)
	movl	$5, -25352(%rbp)
	movl	$5, -25356(%rbp)
	movl	$5, -25360(%rbp)
	movl	$5, -25364(%rbp)
	movl	$5, -25368(%rbp)
	movl	$5, -25372(%rbp)
	movl	$5, -25376(%rbp)
	movl	$5, -25380(%rbp)
	movl	$5, -25384(%rbp)
	movl	$5, -25388(%rbp)
	movl	$5, -25392(%rbp)
	movl	$5, -25396(%rbp)
	movl	$5, -25400(%rbp)
	movl	$5, -25404(%rbp)
	movl	$5, -25408(%rbp)
	movl	$5, -25412(%rbp)
	movl	$5, -25416(%rbp)
	movl	$5, -25420(%rbp)
	movl	$5, -25424(%rbp)
	movl	$5, -25428(%rbp)
	movl	$5, -25432(%rbp)
	movl	$5, -25436(%rbp)
	movl	$5, -25440(%rbp)
	movl	$5, -25444(%rbp)
	movl	$5, -25448(%rbp)
	movl	$5, -25452(%rbp)
	movl	$5, -25456(%rbp)
	movl	$5, -25460(%rbp)
	movl	$5, -25464(%rbp)
	movl	$5, -25468(%rbp)
	movl	$5, -25472(%rbp)
	movl	$5, -25476(%rbp)
	movl	$5, -25480(%rbp)
	movl	$5, -25484(%rbp)
	movl	$5, -25488(%rbp)
	movl	$5, -25492(%rbp)
	movl	$5, -25496(%rbp)
	movl	$5, -25500(%rbp)
	movl	$5, -25504(%rbp)
	movl	$5, -25508(%rbp)
	movl	$5, -25512(%rbp)
	movl	$5, -25516(%rbp)
	movl	$5, -25520(%rbp)
	movl	$5, -25524(%rbp)
	movl	$5, -25528(%rbp)
	movl	$5, -25532(%rbp)
	movl	$5, -25536(%rbp)
	movl	$5, -25540(%rbp)
	movl	$5, -25544(%rbp)
	movl	$5, -25548(%rbp)
	movl	$5, -25552(%rbp)
	movl	$5, -25556(%rbp)
	movl	$5, -25560(%rbp)
	movl	$5, -25564(%rbp)
	movl	$5, -25568(%rbp)
	movl	$5, -25572(%rbp)
	movl	$5, -25576(%rbp)
	movl	$5, -25580(%rbp)
	movl	$5, -25584(%rbp)
	movl	$5, -25588(%rbp)
	movl	$5, -25592(%rbp)
	movl	$5, -25596(%rbp)
	movl	$5, -25600(%rbp)
	movl	$5, -25604(%rbp)
	movl	$5, -25608(%rbp)
	movl	$5, -25612(%rbp)
	movl	$5, -25616(%rbp)
	movl	$5, -25620(%rbp)
	movl	$5, -25624(%rbp)
	movl	$5, -25628(%rbp)
	movl	$5, -25632(%rbp)
	movl	$5, -25636(%rbp)
	movl	$5, -25640(%rbp)
	movl	$5, -25644(%rbp)
	movl	$5, -25648(%rbp)
	movl	$5, -25652(%rbp)
	movl	$5, -25656(%rbp)
	movl	$5, -25660(%rbp)
	movl	$5, -25664(%rbp)
	movl	$5, -25668(%rbp)
	movl	$5, -25672(%rbp)
	movl	$5, -25676(%rbp)
	movl	$5, -25680(%rbp)
	movl	$5, -25684(%rbp)
	movl	$5, -25688(%rbp)
	movl	$5, -25692(%rbp)
	movl	$5, -25696(%rbp)
	movl	$5, -25700(%rbp)
	movl	$5, -25704(%rbp)
	movl	$5, -25708(%rbp)
	movl	$5, -25712(%rbp)
	movl	$5, -25716(%rbp)
	movl	$5, -25720(%rbp)
	movl	$5, -25724(%rbp)
	movl	$5, -25728(%rbp)
	movl	$5, -25732(%rbp)
	movl	$5, -25736(%rbp)
	movl	$5, -25740(%rbp)
	movl	$5, -25744(%rbp)
	movl	$5, -25748(%rbp)
	movl	$5, -25752(%rbp)
	movl	$5, -25756(%rbp)
	movl	$5, -25760(%rbp)
	movl	$5, -25764(%rbp)
	movl	$5, -25768(%rbp)
	movl	$5, -25772(%rbp)
	movl	$5, -25776(%rbp)
	movl	$5, -25780(%rbp)
	movl	$5, -25784(%rbp)
	movl	$5, -25788(%rbp)
	movl	$5, -25792(%rbp)
	movl	$5, -25796(%rbp)
	movl	$5, -25800(%rbp)
	movl	$5, -25804(%rbp)
	movl	$5, -25808(%rbp)
	movl	$5, -25812(%rbp)
	movl	$5, -25816(%rbp)
	movl	$5, -25820(%rbp)
	movl	$5, -25824(%rbp)
	movl	$5, -25828(%rbp)
	movl	$5, -25832(%rbp)
	movl	$5, -25836(%rbp)
	movl	$5, -25840(%rbp)
	movl	$5, -25844(%rbp)
	movl	$5, -25848(%rbp)
	movl	$5, -25852(%rbp)
	movl	$5, -25856(%rbp)
	movl	$5, -25860(%rbp)
	movl	$5, -25864(%rbp)
	movl	$5, -25868(%rbp)
	movl	$5, -25872(%rbp)
	movl	$5, -25876(%rbp)
	movl	$5, -25880(%rbp)
	movl	$5, -25884(%rbp)
	movl	$5, -25888(%rbp)
	movl	$5, -25892(%rbp)
	movl	$5, -25896(%rbp)
	movl	$5, -25900(%rbp)
	movl	$5, -25904(%rbp)
	movl	$5, -25908(%rbp)
	movl	$5, -25912(%rbp)
	movl	$5, -25916(%rbp)
	movl	$5, -25920(%rbp)
	movl	$5, -25924(%rbp)
	movl	$5, -25928(%rbp)
	movl	$5, -25932(%rbp)
	movl	$5, -25936(%rbp)
	movl	$5, -25940(%rbp)
	movl	$5, -25944(%rbp)
	movl	$5, -25948(%rbp)
	movl	$5, -25952(%rbp)
	movl	$5, -25956(%rbp)
	movl	$5, -25960(%rbp)
	movl	$5, -25964(%rbp)
	movl	$5, -25968(%rbp)
	movl	$5, -25972(%rbp)
	movl	$5, -25976(%rbp)
	movl	$5, -25980(%rbp)
	movl	$5, -25984(%rbp)
	movl	$5, -25988(%rbp)
	movl	$5, -25992(%rbp)
	movl	$5, -25996(%rbp)
	movl	$5, -26000(%rbp)
	movl	$5, -26004(%rbp)
	movl	$5, -26008(%rbp)
	movl	$5, -26012(%rbp)
	movl	$5, -26016(%rbp)
	movl	$5, -26020(%rbp)
	movl	$5, -26024(%rbp)
	movl	$5, -26028(%rbp)
	movl	$5, -26032(%rbp)
	movl	$5, -26036(%rbp)
	movl	$5, -26040(%rbp)
	movl	$5, -26044(%rbp)
	movl	$5, -26048(%rbp)
	movl	$5, -26052(%rbp)
	movl	$5, -26056(%rbp)
	movl	$5, -26060(%rbp)
	movl	$5, -26064(%rbp)
	movl	$5, -26068(%rbp)
	movl	$5, -26072(%rbp)
	movl	$5, -26076(%rbp)
	movl	$5, -26080(%rbp)
	movl	$5, -26084(%rbp)
	movl	$5, -26088(%rbp)
	movl	$5, -26092(%rbp)
	movl	$5, -26096(%rbp)
	movl	$5, -26100(%rbp)
	movl	$5, -26104(%rbp)
	movl	$5, -26108(%rbp)
	movl	$5, -26112(%rbp)
	movl	$5, -26116(%rbp)
	movl	$5, -26120(%rbp)
	movl	$5, -26124(%rbp)
	movl	$5, -26128(%rbp)
	movl	$5, -26132(%rbp)
	movl	$5, -26136(%rbp)
	movl	$5, -26140(%rbp)
	movl	$5, -26144(%rbp)
	movl	$5, -26148(%rbp)
	movl	$5, -26152(%rbp)
	movl	$5, -26156(%rbp)
	movl	$5, -26160(%rbp)
	movl	$5, -26164(%rbp)
	movl	$5, -26168(%rbp)
	movl	$5, -26172(%rbp)
	movl	$5, -26176(%rbp)
	movl	$5, -26180(%rbp)
	movl	$5, -26184(%rbp)
	movl	$5, -26188(%rbp)
	movl	$5, -26192(%rbp)
	movl	$5, -26196(%rbp)
	movl	$5, -26200(%rbp)
	movl	$5, -26204(%rbp)
	movl	$5, -26208(%rbp)
	movl	$5, -26212(%rbp)
	movl	$5, -26216(%rbp)
	movl	$5, -26220(%rbp)
	movl	$5, -26224(%rbp)
	movl	$5, -26228(%rbp)
	movl	$5, -26232(%rbp)
	movl	$5, -26236(%rbp)
	movl	$5, -26240(%rbp)
	movl	$5, -26244(%rbp)
	movl	$5, -26248(%rbp)
	movl	$5, -26252(%rbp)
	movl	$5, -26256(%rbp)
	movl	$5, -26260(%rbp)
	movl	$5, -26264(%rbp)
	movl	$5, -26268(%rbp)
	movl	$5, -26272(%rbp)
	movl	$5, -26276(%rbp)
	movl	$5, -26280(%rbp)
	movl	$5, -26284(%rbp)
	movl	$5, -26288(%rbp)
	movl	$5, -26292(%rbp)
	movl	$5, -26296(%rbp)
	movl	$5, -26300(%rbp)
	movl	$5, -26304(%rbp)
	movl	$5, -26308(%rbp)
	movl	$5, -26312(%rbp)
	movl	$5, -26316(%rbp)
	movl	$5, -26320(%rbp)
	movl	$5, -26324(%rbp)
	movl	$5, -26328(%rbp)
	movl	$5, -26332(%rbp)
	movl	$5, -26336(%rbp)
	movl	$5, -26340(%rbp)
	movl	$5, -26344(%rbp)
	movl	$5, -26348(%rbp)
	movl	$5, -26352(%rbp)
	movl	$5, -26356(%rbp)
	movl	$5, -26360(%rbp)
	movl	$5, -26364(%rbp)
	movl	$5, -26368(%rbp)
	movl	$5, -26372(%rbp)
	movl	$5, -26376(%rbp)
	movl	$5, -26380(%rbp)
	movl	$5, -26384(%rbp)
	movl	$5, -26388(%rbp)
	movl	$5, -26392(%rbp)
	movl	$5, -26396(%rbp)
	movl	$5, -26400(%rbp)
	movl	$5, -26404(%rbp)
	movl	$5, -26408(%rbp)
	movl	$5, -26412(%rbp)
	movl	$5, -26416(%rbp)
	movl	$5, -26420(%rbp)
	movl	$5, -26424(%rbp)
	movl	$5, -26428(%rbp)
	movl	$5, -26432(%rbp)
	movl	$5, -26436(%rbp)
	movl	$5, -26440(%rbp)
	movl	$5, -26444(%rbp)
	movl	$5, -26448(%rbp)
	movl	$5, -26452(%rbp)
	movl	$5, -26456(%rbp)
	movl	$5, -26460(%rbp)
	movl	$5, -26464(%rbp)
	movl	$5, -26468(%rbp)
	movl	$5, -26472(%rbp)
	movl	$5, -26476(%rbp)
	movl	$5, -26480(%rbp)
	movl	$5, -26484(%rbp)
	movl	$5, -26488(%rbp)
	movl	$5, -26492(%rbp)
	movl	$5, -26496(%rbp)
	movl	$5, -26500(%rbp)
	movl	$5, -26504(%rbp)
	movl	$5, -26508(%rbp)
	movl	$5, -26512(%rbp)
	movl	$5, -26516(%rbp)
	movl	$5, -26520(%rbp)
	movl	$5, -26524(%rbp)
	movl	$5, -26528(%rbp)
	movl	$5, -26532(%rbp)
	movl	$5, -26536(%rbp)
	movl	$5, -26540(%rbp)
	movl	$5, -26544(%rbp)
	movl	$5, -26548(%rbp)
	movl	$5, -26552(%rbp)
	movl	$5, -26556(%rbp)
	movl	$5, -26560(%rbp)
	movl	$5, -26564(%rbp)
	movl	$5, -26568(%rbp)
	movl	$5, -26572(%rbp)
	movl	$5, -26576(%rbp)
	movl	$5, -26580(%rbp)
	movl	$5, -26584(%rbp)
	movl	$5, -26588(%rbp)
	movl	$5, -26592(%rbp)
	movl	$5, -26596(%rbp)
	movl	$5, -26600(%rbp)
	movl	$5, -26604(%rbp)
	movl	$5, -26608(%rbp)
	movl	$5, -26612(%rbp)
	movl	$5, -26616(%rbp)
	movl	$5, -26620(%rbp)
	movl	$5, -26624(%rbp)
	movl	$5, -26628(%rbp)
	movl	$5, -26632(%rbp)
	movl	$5, -26636(%rbp)
	movl	$5, -26640(%rbp)
	movl	$5, -26644(%rbp)
	movl	$5, -26648(%rbp)
	movl	$5, -26652(%rbp)
	movl	$5, -26656(%rbp)
	movl	$5, -26660(%rbp)
	movl	$5, -26664(%rbp)
	movl	$5, -26668(%rbp)
	movl	$5, -26672(%rbp)
	movl	$5, -26676(%rbp)
	movl	$5, -26680(%rbp)
	movl	$5, -26684(%rbp)
	movl	$5, -26688(%rbp)
	movl	$5, -26692(%rbp)
	movl	$5, -26696(%rbp)
	movl	$5, -26700(%rbp)
	movl	$5, -26704(%rbp)
	movl	$5, -26708(%rbp)
	movl	$5, -26712(%rbp)
	movl	$5, -26716(%rbp)
	movl	$5, -26720(%rbp)
	movl	$5, -26724(%rbp)
	movl	$5, -26728(%rbp)
	movl	$5, -26732(%rbp)
	movl	$5, -26736(%rbp)
	movl	$5, -26740(%rbp)
	movl	$5, -26744(%rbp)
	movl	$5, -26748(%rbp)
	movl	$5, -26752(%rbp)
	movl	$5, -26756(%rbp)
	movl	$5, -26760(%rbp)
	movl	$5, -26764(%rbp)
	movl	$5, -26768(%rbp)
	movl	$5, -26772(%rbp)
	movl	$5, -26776(%rbp)
	movl	$5, -26780(%rbp)
	movl	$5, -26784(%rbp)
	movl	$5, -26788(%rbp)
	movl	$5, -26792(%rbp)
	movl	$5, -26796(%rbp)
	movl	$5, -26800(%rbp)
	movl	$5, -26804(%rbp)
	movl	$5, -26808(%rbp)
	movl	$5, -26812(%rbp)
	movl	$5, -26816(%rbp)
	movl	$5, -26820(%rbp)
	movl	$5, -26824(%rbp)
	movl	$5, -26828(%rbp)
	movl	$5, -26832(%rbp)
	movl	$5, -26836(%rbp)
	movl	$5, -26840(%rbp)
	movl	$5, -26844(%rbp)
	movl	$5, -26848(%rbp)
	movl	$5, -26852(%rbp)
	movl	$5, -26856(%rbp)
	movl	$5, -26860(%rbp)
	movl	$5, -26864(%rbp)
	movl	$5, -26868(%rbp)
	movl	$5, -26872(%rbp)
	movl	$5, -26876(%rbp)
	movl	$5, -26880(%rbp)
	movl	$5, -26884(%rbp)
	movl	$5, -26888(%rbp)
	movl	$5, -26892(%rbp)
	movl	$5, -26896(%rbp)
	movl	$5, -26900(%rbp)
	movl	$5, -26904(%rbp)
	movl	$5, -26908(%rbp)
	movl	$5, -26912(%rbp)
	movl	$5, -26916(%rbp)
	movl	$5, -26920(%rbp)
	movl	$5, -26924(%rbp)
	movl	$5, -26928(%rbp)
	movl	$5, -26932(%rbp)
	movl	$5, -26936(%rbp)
	movl	$5, -26940(%rbp)
	movl	$5, -26944(%rbp)
	movl	$5, -26948(%rbp)
	movl	$5, -26952(%rbp)
	movl	$5, -26956(%rbp)
	movl	$5, -26960(%rbp)
	movl	$5, -26964(%rbp)
	movl	$5, -26968(%rbp)
	movl	$5, -26972(%rbp)
	movl	$5, -26976(%rbp)
	movl	$5, -26980(%rbp)
	movl	$5, -26984(%rbp)
	movl	$5, -26988(%rbp)
	movl	$5, -26992(%rbp)
	movl	$5, -26996(%rbp)
	movl	$5, -27000(%rbp)
	movl	$5, -27004(%rbp)
	movl	$5, -27008(%rbp)
	movl	$5, -27012(%rbp)
	movl	$5, -27016(%rbp)
	movl	$5, -27020(%rbp)
	movl	$5, -27024(%rbp)
	movl	$5, -27028(%rbp)
	movl	$5, -27032(%rbp)
	movl	$5, -27036(%rbp)
	movl	$5, -27040(%rbp)
	movl	$5, -27044(%rbp)
	movl	$5, -27048(%rbp)
	movl	$5, -27052(%rbp)
	movl	$5, -27056(%rbp)
	movl	$5, -27060(%rbp)
	movl	$5, -27064(%rbp)
	movl	$5, -27068(%rbp)
	movl	$5, -27072(%rbp)
	movl	$5, -27076(%rbp)
	movl	$5, -27080(%rbp)
	movl	$5, -27084(%rbp)
	movl	$5, -27088(%rbp)
	movl	$5, -27092(%rbp)
	movl	$5, -27096(%rbp)
	movl	$5, -27100(%rbp)
	movl	$5, -27104(%rbp)
	movl	$5, -27108(%rbp)
	movl	$5, -27112(%rbp)
	movl	$5, -27116(%rbp)
	movl	$5, -27120(%rbp)
	movl	$5, -27124(%rbp)
	movl	$5, -27128(%rbp)
	movl	$5, -27132(%rbp)
	movl	$5, -27136(%rbp)
	movl	$5, -27140(%rbp)
	movl	$5, -27144(%rbp)
	movl	$5, -27148(%rbp)
	movl	$5, -27152(%rbp)
	movl	$5, -27156(%rbp)
	movl	$5, -27160(%rbp)
	movl	$5, -27164(%rbp)
	movl	$5, -27168(%rbp)
	movl	$5, -27172(%rbp)
	movl	$5, -27176(%rbp)
	movl	$5, -27180(%rbp)
	movl	$5, -27184(%rbp)
	movl	$5, -27188(%rbp)
	movl	$5, -27192(%rbp)
	movl	$5, -27196(%rbp)
	movl	$5, -27200(%rbp)
	movl	$5, -27204(%rbp)
	movl	$5, -27208(%rbp)
	movl	$5, -27212(%rbp)
	movl	$5, -27216(%rbp)
	movl	$5, -27220(%rbp)
	movl	$5, -27224(%rbp)
	movl	$5, -27228(%rbp)
	movl	$5, -27232(%rbp)
	movl	$5, -27236(%rbp)
	movl	$5, -27240(%rbp)
	movl	$5, -27244(%rbp)
	movl	$5, -27248(%rbp)
	movl	$5, -27252(%rbp)
	movl	$5, -27256(%rbp)
	movl	$5, -27260(%rbp)
	movl	$5, -27264(%rbp)
	movl	$5, -27268(%rbp)
	movl	$5, -27272(%rbp)
	movl	$5, -27276(%rbp)
	movl	$5, -27280(%rbp)
	movl	$5, -27284(%rbp)
	movl	$5, -27288(%rbp)
	movl	$5, -27292(%rbp)
	movl	$5, -27296(%rbp)
	movl	$5, -27300(%rbp)
	movl	$5, -27304(%rbp)
	movl	$5, -27308(%rbp)
	movl	$5, -27312(%rbp)
	movl	$5, -27316(%rbp)
	movl	$5, -27320(%rbp)
	movl	$5, -27324(%rbp)
	movl	$5, -27328(%rbp)
	movl	$5, -27332(%rbp)
	movl	$5, -27336(%rbp)
	movl	$5, -27340(%rbp)
	movl	$5, -27344(%rbp)
	movl	$5, -27348(%rbp)
	movl	$5, -27352(%rbp)
	movl	$5, -27356(%rbp)
	movl	$5, -27360(%rbp)
	movl	$5, -27364(%rbp)
	movl	$5, -27368(%rbp)
	movl	$5, -27372(%rbp)
	movl	$5, -27376(%rbp)
	movl	$5, -27380(%rbp)
	movl	$5, -27384(%rbp)
	movl	$5, -27388(%rbp)
	movl	$5, -27392(%rbp)
	movl	$5, -27396(%rbp)
	movl	$5, -27400(%rbp)
	movl	$5, -27404(%rbp)
	movl	$5, -27408(%rbp)
	movl	$5, -27412(%rbp)
	movl	$5, -27416(%rbp)
	movl	$5, -27420(%rbp)
	movl	$5, -27424(%rbp)
	movl	$5, -27428(%rbp)
	movl	$5, -27432(%rbp)
	movl	$5, -27436(%rbp)
	movl	$5, -27440(%rbp)
	movl	$5, -27444(%rbp)
	movl	$5, -27448(%rbp)
	movl	$5, -27452(%rbp)
	movl	$5, -27456(%rbp)
	movl	$5, -27460(%rbp)
	movl	$5, -27464(%rbp)
	movl	$5, -27468(%rbp)
	movl	$5, -27472(%rbp)
	movl	$5, -27476(%rbp)
	movl	$5, -27480(%rbp)
	movl	$5, -27484(%rbp)
	movl	$5, -27488(%rbp)
	movl	$5, -27492(%rbp)
	movl	$5, -27496(%rbp)
	movl	$5, -27500(%rbp)
	movl	$5, -27504(%rbp)
	movl	$5, -27508(%rbp)
	movl	$5, -27512(%rbp)
	movl	$5, -27516(%rbp)
	movl	$5, -27520(%rbp)
	movl	$5, -27524(%rbp)
	movl	$5, -27528(%rbp)
	movl	$5, -27532(%rbp)
	movl	$5, -27536(%rbp)
	movl	$5, -27540(%rbp)
	movl	$5, -27544(%rbp)
	movl	$5, -27548(%rbp)
	movl	$5, -27552(%rbp)
	movl	$5, -27556(%rbp)
	movl	$5, -27560(%rbp)
	movl	$5, -27564(%rbp)
	movl	$5, -27568(%rbp)
	movl	$5, -27572(%rbp)
	movl	$5, -27576(%rbp)
	movl	$5, -27580(%rbp)
	movl	$5, -27584(%rbp)
	movl	$5, -27588(%rbp)
	movl	$5, -27592(%rbp)
	movl	$5, -27596(%rbp)
	movl	$5, -27600(%rbp)
	movl	$5, -27604(%rbp)
	movl	$5, -27608(%rbp)
	movl	$5, -27612(%rbp)
	movl	$5, -27616(%rbp)
	movl	$5, -27620(%rbp)
	movl	$5, -27624(%rbp)
	movl	$5, -27628(%rbp)
	movl	$5, -27632(%rbp)
	movl	$5, -27636(%rbp)
	movl	$5, -27640(%rbp)
	movl	$5, -27644(%rbp)
	movl	$5, -27648(%rbp)
	movl	$5, -27652(%rbp)
	movl	$5, -27656(%rbp)
	movl	$5, -27660(%rbp)
	movl	$5, -27664(%rbp)
	movl	$5, -27668(%rbp)
	movl	$5, -27672(%rbp)
	movl	$5, -27676(%rbp)
	movl	$5, -27680(%rbp)
	movl	$5, -27684(%rbp)
	movl	$5, -27688(%rbp)
	movl	$5, -27692(%rbp)
	movl	$5, -27696(%rbp)
	movl	$5, -27700(%rbp)
	movl	$5, -27704(%rbp)
	movl	$5, -27708(%rbp)
	movl	$5, -27712(%rbp)
	movl	$5, -27716(%rbp)
	movl	$5, -27720(%rbp)
	movl	$5, -27724(%rbp)
	movl	$5, -27728(%rbp)
	movl	$5, -27732(%rbp)
	movl	$5, -27736(%rbp)
	movl	$5, -27740(%rbp)
	movl	$5, -27744(%rbp)
	movl	$5, -27748(%rbp)
	movl	$5, -27752(%rbp)
	movl	$5, -27756(%rbp)
	movl	$5, -27760(%rbp)
	movl	$5, -27764(%rbp)
	movl	$5, -27768(%rbp)
	movl	$5, -27772(%rbp)
	movl	$5, -27776(%rbp)
	movl	$5, -27780(%rbp)
	movl	$5, -27784(%rbp)
	movl	$5, -27788(%rbp)
	movl	$5, -27792(%rbp)
	movl	$5, -27796(%rbp)
	movl	$5, -27800(%rbp)
	movl	$5, -27804(%rbp)
	movl	$5, -27808(%rbp)
	movl	$5, -27812(%rbp)
	movl	$5, -27816(%rbp)
	movl	$5, -27820(%rbp)
	movl	$5, -27824(%rbp)
	movl	$5, -27828(%rbp)
	movl	$5, -27832(%rbp)
	movl	$5, -27836(%rbp)
	movl	$5, -27840(%rbp)
	movl	$5, -27844(%rbp)
	movl	$5, -27848(%rbp)
	movl	$5, -27852(%rbp)
	movl	$5, -27856(%rbp)
	movl	$5, -27860(%rbp)
	movl	$5, -27864(%rbp)
	movl	$5, -27868(%rbp)
	movl	$5, -27872(%rbp)
	movl	$5, -27876(%rbp)
	movl	$5, -27880(%rbp)
	movl	$5, -27884(%rbp)
	movl	$5, -27888(%rbp)
	movl	$5, -27892(%rbp)
	movl	$5, -27896(%rbp)
	movl	$5, -27900(%rbp)
	movl	$5, -27904(%rbp)
	movl	$5, -27908(%rbp)
	movl	$5, -27912(%rbp)
	movl	$5, -27916(%rbp)
	movl	$5, -27920(%rbp)
	movl	$5, -27924(%rbp)
	movl	$5, -27928(%rbp)
	movl	$5, -27932(%rbp)
	movl	$5, -27936(%rbp)
	movl	$5, -27940(%rbp)
	movl	$5, -27944(%rbp)
	movl	$5, -27948(%rbp)
	movl	$5, -27952(%rbp)
	movl	$5, -27956(%rbp)
	movl	$5, -27960(%rbp)
	movl	$5, -27964(%rbp)
	movl	$5, -27968(%rbp)
	movl	$5, -27972(%rbp)
	movl	$5, -27976(%rbp)
	movl	$5, -27980(%rbp)
	movl	$5, -27984(%rbp)
	movl	$5, -27988(%rbp)
	movl	$5, -27992(%rbp)
	movl	$5, -27996(%rbp)
	movl	$5, -28000(%rbp)
	movl	$5, -28004(%rbp)
	movl	$5, -28008(%rbp)
	movl	$5, -28012(%rbp)
	movl	$5, -28016(%rbp)
	movl	$5, -28020(%rbp)
	movl	$5, -28024(%rbp)
	movl	$5, -28028(%rbp)
	movl	$5, -28032(%rbp)
	movl	$5, -28036(%rbp)
	movl	$5, -28040(%rbp)
	movl	$5, -28044(%rbp)
	movl	$5, -28048(%rbp)
	movl	$5, -28052(%rbp)
	movl	$5, -28056(%rbp)
	movl	$5, -28060(%rbp)
	movl	$5, -28064(%rbp)
	movl	$5, -28068(%rbp)
	movl	$5, -28072(%rbp)
	movl	$5, -28076(%rbp)
	movl	$5, -28080(%rbp)
	movl	$5, -28084(%rbp)
	movl	$5, -28088(%rbp)
	movl	$5, -28092(%rbp)
	movl	$5, -28096(%rbp)
	movl	$5, -28100(%rbp)
	movl	$5, -28104(%rbp)
	movl	$5, -28108(%rbp)
	movl	$5, -28112(%rbp)
	movl	$5, -28116(%rbp)
	movl	$5, -28120(%rbp)
	movl	$5, -28124(%rbp)
	movl	$5, -28128(%rbp)
	movl	$5, -28132(%rbp)
	movl	$5, -28136(%rbp)
	movl	$5, -28140(%rbp)
	movl	$5, -28144(%rbp)
	movl	$5, -28148(%rbp)
	movl	$5, -28152(%rbp)
	movl	$5, -28156(%rbp)
	movl	$5, -28160(%rbp)
	movl	$5, -28164(%rbp)
	movl	$5, -28168(%rbp)
	movl	$5, -28172(%rbp)
	movl	$5, -28176(%rbp)
	movl	$5, -28180(%rbp)
	movl	$5, -28184(%rbp)
	movl	$5, -28188(%rbp)
	movl	$5, -28192(%rbp)
	movl	$5, -28196(%rbp)
	movl	$5, -28200(%rbp)
	movl	$5, -28204(%rbp)
	movl	$5, -28208(%rbp)
	movl	$5, -28212(%rbp)
	movl	$5, -28216(%rbp)
	movl	$5, -28220(%rbp)
	movl	$5, -28224(%rbp)
	movl	$5, -28228(%rbp)
	movl	$5, -28232(%rbp)
	movl	$5, -28236(%rbp)
	movl	$5, -28240(%rbp)
	movl	$5, -28244(%rbp)
	movl	$5, -28248(%rbp)
	movl	$5, -28252(%rbp)
	movl	$5, -28256(%rbp)
	movl	$5, -28260(%rbp)
	movl	$5, -28264(%rbp)
	movl	$5, -28268(%rbp)
	movl	$5, -28272(%rbp)
	movl	$5, -28276(%rbp)
	movl	$5, -28280(%rbp)
	movl	$5, -28284(%rbp)
	movl	$5, -28288(%rbp)
	movl	$5, -28292(%rbp)
	movl	$5, -28296(%rbp)
	movl	$5, -28300(%rbp)
	movl	$5, -28304(%rbp)
	movl	$5, -28308(%rbp)
	movl	$5, -28312(%rbp)
	movl	$5, -28316(%rbp)
	movl	$5, -28320(%rbp)
	movl	$5, -28324(%rbp)
	movl	$5, -28328(%rbp)
	movl	$5, -28332(%rbp)
	movl	$5, -28336(%rbp)
	movl	$5, -28340(%rbp)
	movl	$5, -28344(%rbp)
	movl	$5, -28348(%rbp)
	movl	$5, -28352(%rbp)
	movl	$5, -28356(%rbp)
	movl	$5, -28360(%rbp)
	movl	$5, -28364(%rbp)
	movl	$5, -28368(%rbp)
	movl	$5, -28372(%rbp)
	movl	$5, -28376(%rbp)
	movl	$5, -28380(%rbp)
	movl	$5, -28384(%rbp)
	movl	$5, -28388(%rbp)
	movl	$5, -28392(%rbp)
	movl	$5, -28396(%rbp)
	movl	$5, -28400(%rbp)
	movl	$5, -28404(%rbp)
	movl	$5, -28408(%rbp)
	movl	$5, -28412(%rbp)
	movl	$5, -28416(%rbp)
	movl	$5, -28420(%rbp)
	movl	$5, -28424(%rbp)
	movl	$5, -28428(%rbp)
	movl	$5, -28432(%rbp)
	movl	$5, -28436(%rbp)
	movl	$5, -28440(%rbp)
	movl	$5, -28444(%rbp)
	movl	$5, -28448(%rbp)
	movl	$5, -28452(%rbp)
	movl	$5, -28456(%rbp)
	movl	$5, -28460(%rbp)
	movl	$5, -28464(%rbp)
	movl	$5, -28468(%rbp)
	movl	$5, -28472(%rbp)
	movl	$5, -28476(%rbp)
	movl	$5, -28480(%rbp)
	movl	$5, -28484(%rbp)
	movl	$5, -28488(%rbp)
	movl	$5, -28492(%rbp)
	movl	$5, -28496(%rbp)
	movl	$5, -28500(%rbp)
	movl	$5, -28504(%rbp)
	movl	$5, -28508(%rbp)
	movl	$5, -28512(%rbp)
	movl	$5, -28516(%rbp)
	movl	$5, -28520(%rbp)
	movl	$5, -28524(%rbp)
	movl	$5, -28528(%rbp)
	movl	$5, -28532(%rbp)
	movl	$5, -28536(%rbp)
	movl	$5, -28540(%rbp)
	movl	$5, -28544(%rbp)
	movl	$5, -28548(%rbp)
	movl	$5, -28552(%rbp)
	movl	$5, -28556(%rbp)
	movl	$5, -28560(%rbp)
	movl	$5, -28564(%rbp)
	movl	$5, -28568(%rbp)
	movl	$5, -28572(%rbp)
	movl	$5, -28576(%rbp)
	movl	$5, -28580(%rbp)
	movl	$5, -28584(%rbp)
	movl	$5, -28588(%rbp)
	movl	$5, -28592(%rbp)
	movl	$5, -28596(%rbp)
	movl	$5, -28600(%rbp)
	movl	$5, -28604(%rbp)
	movl	$5, -28608(%rbp)
	movl	$5, -28612(%rbp)
	movl	$5, -28616(%rbp)
	movl	$5, -28620(%rbp)
	movl	$5, -28624(%rbp)
	movl	$5, -28628(%rbp)
	movl	$5, -28632(%rbp)
	movl	$5, -28636(%rbp)
	movl	$5, -28640(%rbp)
	movl	$5, -28644(%rbp)
	movl	$5, -28648(%rbp)
	movl	$5, -28652(%rbp)
	movl	$5, -28656(%rbp)
	movl	$5, -28660(%rbp)
	movl	$5, -28664(%rbp)
	movl	$5, -28668(%rbp)
	movl	$5, -28672(%rbp)
	movl	$5, -28676(%rbp)
	movl	$5, -28680(%rbp)
	movl	$5, -28684(%rbp)
	movl	$5, -28688(%rbp)
	movl	$5, -28692(%rbp)
	movl	$5, -28696(%rbp)
	movl	$5, -28700(%rbp)
	movl	$5, -28704(%rbp)
	movl	$5, -28708(%rbp)
	movl	$5, -28712(%rbp)
	movl	$5, -28716(%rbp)
	movl	$5, -28720(%rbp)
	movl	$5, -28724(%rbp)
	movl	$5, -28728(%rbp)
	movl	$5, -28732(%rbp)
	movl	$5, -28736(%rbp)
	movl	$5, -28740(%rbp)
	movl	$5, -28744(%rbp)
	movl	$5, -28748(%rbp)
	movl	$5, -28752(%rbp)
	movl	$5, -28756(%rbp)
	movl	$5, -28760(%rbp)
	movl	$5, -28764(%rbp)
	movl	$5, -28768(%rbp)
	movl	$5, -28772(%rbp)
	movl	$5, -28776(%rbp)
	movl	$5, -28780(%rbp)
	movl	$5, -28784(%rbp)
	movl	$5, -28788(%rbp)
	movl	$5, -28792(%rbp)
	movl	$5, -28796(%rbp)
	movl	$5, -28800(%rbp)
	movl	$5, -28804(%rbp)
	movl	$5, -28808(%rbp)
	movl	$5, -28812(%rbp)
	movl	$5, -28816(%rbp)
	movl	$5, -28820(%rbp)
	movl	$5, -28824(%rbp)
	movl	$5, -28828(%rbp)
	movl	$5, -28832(%rbp)
	movl	$5, -28836(%rbp)
	movl	$5, -28840(%rbp)
	movl	$5, -28844(%rbp)
	movl	$5, -28848(%rbp)
	movl	$5, -28852(%rbp)
	movl	$5, -28856(%rbp)
	movl	$5, -28860(%rbp)
	movl	$5, -28864(%rbp)
	movl	$5, -28868(%rbp)
	movl	$5, -28872(%rbp)
	movl	$5, -28876(%rbp)
	movl	$5, -28880(%rbp)
	movl	$5, -28884(%rbp)
	movl	$5, -28888(%rbp)
	movl	$5, -28892(%rbp)
	movl	$5, -28896(%rbp)
	movl	$5, -28900(%rbp)
	movl	$5, -28904(%rbp)
	movl	$5, -28908(%rbp)
	movl	$5, -28912(%rbp)
	movl	$5, -28916(%rbp)
	movl	$5, -28920(%rbp)
	movl	$5, -28924(%rbp)
	movl	$5, -28928(%rbp)
	movl	$5, -28932(%rbp)
	movl	$5, -28936(%rbp)
	movl	$5, -28940(%rbp)
	movl	$5, -28944(%rbp)
	movl	$5, -28948(%rbp)
	movl	$5, -28952(%rbp)
	movl	$5, -28956(%rbp)
	movl	$5, -28960(%rbp)
	movl	$5, -28964(%rbp)
	movl	$5, -28968(%rbp)
	movl	$5, -28972(%rbp)
	movl	$5, -28976(%rbp)
	movl	$5, -28980(%rbp)
	movl	$5, -28984(%rbp)
	movl	$5, -28988(%rbp)
	movl	$5, -28992(%rbp)
	movl	$5, -28996(%rbp)
	movl	$5, -29000(%rbp)
	movl	$5, -29004(%rbp)
	movl	$5, -29008(%rbp)
	movl	$5, -29012(%rbp)
	movl	$5, -29016(%rbp)
	movl	$5, -29020(%rbp)
	movl	$5, -29024(%rbp)
	movl	$5, -29028(%rbp)
	movl	$5, -29032(%rbp)
	movl	$5, -29036(%rbp)
	movl	$5, -29040(%rbp)
	movl	$5, -29044(%rbp)
	movl	$5, -29048(%rbp)
	movl	$5, -29052(%rbp)
	movl	$5, -29056(%rbp)
	movl	$5, -29060(%rbp)
	movl	$5, -29064(%rbp)
	movl	$5, -29068(%rbp)
	movl	$5, -29072(%rbp)
	movl	$5, -29076(%rbp)
	movl	$5, -29080(%rbp)
	movl	$5, -29084(%rbp)
	movl	$5, -29088(%rbp)
	movl	$5, -29092(%rbp)
	movl	$5, -29096(%rbp)
	movl	$5, -29100(%rbp)
	movl	$5, -29104(%rbp)
	movl	$5, -29108(%rbp)
	movl	$5, -29112(%rbp)
	movl	$5, -29116(%rbp)
	movl	$5, -29120(%rbp)
	movl	$5, -29124(%rbp)
	movl	$5, -29128(%rbp)
	movl	$5, -29132(%rbp)
	movl	$5, -29136(%rbp)
	movl	$5, -29140(%rbp)
	movl	$5, -29144(%rbp)
	movl	$5, -29148(%rbp)
	movl	$5, -29152(%rbp)
	movl	$5, -29156(%rbp)
	movl	$5, -29160(%rbp)
	movl	$5, -29164(%rbp)
	movl	$5, -29168(%rbp)
	movl	$5, -29172(%rbp)
	movl	$5, -29176(%rbp)
	movl	$5, -29180(%rbp)
	movl	$5, -29184(%rbp)
	movl	$5, -29188(%rbp)
	movl	$5, -29192(%rbp)
	movl	$5, -29196(%rbp)
	movl	$5, -29200(%rbp)
	movl	$5, -29204(%rbp)
	movl	$5, -29208(%rbp)
	movl	$5, -29212(%rbp)
	movl	$5, -29216(%rbp)
	movl	$5, -29220(%rbp)
	movl	$5, -29224(%rbp)
	movl	$5, -29228(%rbp)
	movl	$5, -29232(%rbp)
	movl	$5, -29236(%rbp)
	movl	$5, -29240(%rbp)
	movl	$5, -29244(%rbp)
	movl	$5, -29248(%rbp)
	movl	$5, -29252(%rbp)
	movl	$5, -29256(%rbp)
	movl	$5, -29260(%rbp)
	movl	$5, -29264(%rbp)
	movl	$5, -29268(%rbp)
	movl	$5, -29272(%rbp)
	movl	$5, -29276(%rbp)
	movl	$5, -29280(%rbp)
	movl	$5, -29284(%rbp)
	movl	$5, -29288(%rbp)
	movl	$5, -29292(%rbp)
	movl	$5, -29296(%rbp)
	movl	$5, -29300(%rbp)
	movl	$5, -29304(%rbp)
	movl	$5, -29308(%rbp)
	movl	$5, -29312(%rbp)
	movl	$5, -29316(%rbp)
	movl	$5, -29320(%rbp)
	movl	$5, -29324(%rbp)
	movl	$5, -29328(%rbp)
	movl	$5, -29332(%rbp)
	movl	$5, -29336(%rbp)
	movl	$5, -29340(%rbp)
	movl	$5, -29344(%rbp)
	movl	$5, -29348(%rbp)
	movl	$5, -29352(%rbp)
	movl	$5, -29356(%rbp)
	movl	$5, -29360(%rbp)
	movl	$5, -29364(%rbp)
	movl	$5, -29368(%rbp)
	movl	$5, -29372(%rbp)
	movl	$5, -29376(%rbp)
	movl	$5, -29380(%rbp)
	movl	$5, -29384(%rbp)
	movl	$5, -29388(%rbp)
	movl	$5, -29392(%rbp)
	movl	$5, -29396(%rbp)
	movl	$5, -29400(%rbp)
	movl	$5, -29404(%rbp)
	movl	$5, -29408(%rbp)
	movl	$5, -29412(%rbp)
	movl	$5, -29416(%rbp)
	movl	$5, -29420(%rbp)
	movl	$5, -29424(%rbp)
	movl	$5, -29428(%rbp)
	movl	$5, -29432(%rbp)
	movl	$5, -29436(%rbp)
	movl	$5, -29440(%rbp)
	movl	$5, -29444(%rbp)
	movl	$5, -29448(%rbp)
	movl	$5, -29452(%rbp)
	movl	$5, -29456(%rbp)
	movl	$5, -29460(%rbp)
	movl	$5, -29464(%rbp)
	movl	$5, -29468(%rbp)
	movl	$5, -29472(%rbp)
	movl	$5, -29476(%rbp)
	movl	$5, -29480(%rbp)
	movl	$5, -29484(%rbp)
	movl	$5, -29488(%rbp)
	movl	$5, -29492(%rbp)
	movl	$5, -29496(%rbp)
	movl	$5, -29500(%rbp)
	movl	$5, -29504(%rbp)
	movl	$5, -29508(%rbp)
	movl	$5, -29512(%rbp)
	movl	$5, -29516(%rbp)
	movl	$5, -29520(%rbp)
	movl	$5, -29524(%rbp)
	movl	$5, -29528(%rbp)
	movl	$5, -29532(%rbp)
	movl	$5, -29536(%rbp)
	movl	$5, -29540(%rbp)
	movl	$5, -29544(%rbp)
	movl	$5, -29548(%rbp)
	movl	$5, -29552(%rbp)
	movl	$5, -29556(%rbp)
	movl	$5, -29560(%rbp)
	movl	$5, -29564(%rbp)
	movl	$5, -29568(%rbp)
	movl	$5, -29572(%rbp)
	movl	$5, -29576(%rbp)
	movl	$5, -29580(%rbp)
	movl	$5, -29584(%rbp)
	movl	$5, -29588(%rbp)
	movl	$5, -29592(%rbp)
	movl	$5, -29596(%rbp)
	movl	$5, -29600(%rbp)
	movl	$5, -29604(%rbp)
	movl	$5, -29608(%rbp)
	movl	$5, -29612(%rbp)
	movl	$5, -29616(%rbp)
	movl	$5, -29620(%rbp)
	movl	$5, -29624(%rbp)
	movl	$5, -29628(%rbp)
	movl	$5, -29632(%rbp)
	movl	$5, -29636(%rbp)
	movl	$5, -29640(%rbp)
	movl	$5, -29644(%rbp)
	movl	$5, -29648(%rbp)
	movl	$5, -29652(%rbp)
	movl	$5, -29656(%rbp)
	movl	$5, -29660(%rbp)
	movl	$5, -29664(%rbp)
	movl	$5, -29668(%rbp)
	movl	$5, -29672(%rbp)
	movl	$5, -29676(%rbp)
	movl	$5, -29680(%rbp)
	movl	$5, -29684(%rbp)
	movl	$5, -29688(%rbp)
	movl	$5, -29692(%rbp)
	movl	$5, -29696(%rbp)
	movl	$5, -29700(%rbp)
	movl	$5, -29704(%rbp)
	movl	$5, -29708(%rbp)
	movl	$5, -29712(%rbp)
	movl	$5, -29716(%rbp)
	movl	$5, -29720(%rbp)
	movl	$5, -29724(%rbp)
	movl	$5, -29728(%rbp)
	movl	$5, -29732(%rbp)
	movl	$5, -29736(%rbp)
	movl	$5, -29740(%rbp)
	movl	$5, -29744(%rbp)
	movl	$5, -29748(%rbp)
	movl	$5, -29752(%rbp)
	movl	$5, -29756(%rbp)
	movl	$5, -29760(%rbp)
	movl	$5, -29764(%rbp)
	movl	$5, -29768(%rbp)
	movl	$5, -29772(%rbp)
	movl	$5, -29776(%rbp)
	movl	$5, -29780(%rbp)
	movl	$5, -29784(%rbp)
	movl	$5, -29788(%rbp)
	movl	$5, -29792(%rbp)
	movl	$5, -29796(%rbp)
	movl	$5, -29800(%rbp)
	movl	$5, -29804(%rbp)
	movl	$5, -29808(%rbp)
	movl	$5, -29812(%rbp)
	movl	$5, -29816(%rbp)
	movl	$5, -29820(%rbp)
	movl	$5, -29824(%rbp)
	movl	$5, -29828(%rbp)
	movl	$5, -29832(%rbp)
	movl	$5, -29836(%rbp)
	movl	$5, -29840(%rbp)
	movl	$5, -29844(%rbp)
	movl	$5, -29848(%rbp)
	movl	$5, -29852(%rbp)
	movl	$5, -29856(%rbp)
	movl	$5, -29860(%rbp)
	movl	$5, -29864(%rbp)
	movl	$5, -29868(%rbp)
	movl	$5, -29872(%rbp)
	movl	$5, -29876(%rbp)
	movl	$5, -29880(%rbp)
	movl	$5, -29884(%rbp)
	movl	$5, -29888(%rbp)
	movl	$5, -29892(%rbp)
	movl	$5, -29896(%rbp)
	movl	$5, -29900(%rbp)
	movl	$5, -29904(%rbp)
	movl	$5, -29908(%rbp)
	movl	$5, -29912(%rbp)
	movl	$5, -29916(%rbp)
	movl	$5, -29920(%rbp)
	movl	$5, -29924(%rbp)
	movl	$5, -29928(%rbp)
	movl	$5, -29932(%rbp)
	movl	$5, -29936(%rbp)
	movl	$5, -29940(%rbp)
	movl	$5, -29944(%rbp)
	movl	$5, -29948(%rbp)
	movl	$5, -29952(%rbp)
	movl	$5, -29956(%rbp)
	movl	$5, -29960(%rbp)
	movl	$5, -29964(%rbp)
	movl	$5, -29968(%rbp)
	movl	$5, -29972(%rbp)
	movl	$5, -29976(%rbp)
	movl	$5, -29980(%rbp)
	movl	$5, -29984(%rbp)
	movl	$5, -29988(%rbp)
	movl	$5, -29992(%rbp)
	movl	$5, -29996(%rbp)
	movl	$5, -30000(%rbp)
	movl	$5, -30004(%rbp)
	movl	$5, -30008(%rbp)
	movl	$5, -30012(%rbp)
	movl	$5, -30016(%rbp)
	movl	$5, -30020(%rbp)
	movl	$5, -30024(%rbp)
	movl	$5, -30028(%rbp)
	movl	$5, -30032(%rbp)
	movl	$5, -30036(%rbp)
	movl	$5, -30040(%rbp)
	movl	$5, -30044(%rbp)
	movl	$5, -30048(%rbp)
	movl	$5, -30052(%rbp)
	movl	$5, -30056(%rbp)
	movl	$5, -30060(%rbp)
	movl	$5, -30064(%rbp)
	movl	$5, -30068(%rbp)
	movl	$5, -30072(%rbp)
	movl	$5, -30076(%rbp)
	movl	$5, -30080(%rbp)
	movl	$5, -30084(%rbp)
	movl	$5, -30088(%rbp)
	movl	$5, -30092(%rbp)
	movl	$5, -30096(%rbp)
	movl	$5, -30100(%rbp)
	movl	$5, -30104(%rbp)
	movl	$5, -30108(%rbp)
	movl	$5, -30112(%rbp)
	movl	$5, -30116(%rbp)
	movl	$5, -30120(%rbp)
	movl	$5, -30124(%rbp)
	movl	$5, -30128(%rbp)
	movl	$5, -30132(%rbp)
	movl	$5, -30136(%rbp)
	movl	$5, -30140(%rbp)
	movl	$5, -30144(%rbp)
	movl	$5, -30148(%rbp)
	movl	$5, -30152(%rbp)
	movl	$5, -30156(%rbp)
	movl	$5, -30160(%rbp)
	movl	$5, -30164(%rbp)
	movl	$5, -30168(%rbp)
	movl	$5, -30172(%rbp)
	movl	$5, -30176(%rbp)
	movl	$5, -30180(%rbp)
	movl	$5, -30184(%rbp)
	movl	$5, -30188(%rbp)
	movl	$5, -30192(%rbp)
	movl	$5, -30196(%rbp)
	movl	$5, -30200(%rbp)
	movl	$5, -30204(%rbp)
	movl	$5, -30208(%rbp)
	movl	$5, -30212(%rbp)
	movl	$5, -30216(%rbp)
	movl	$5, -30220(%rbp)
	movl	$5, -30224(%rbp)
	movl	$5, -30228(%rbp)
	movl	$5, -30232(%rbp)
	movl	$5, -30236(%rbp)
	movl	$5, -30240(%rbp)
	movl	$5, -30244(%rbp)
	movl	$5, -30248(%rbp)
	movl	$5, -30252(%rbp)
	movl	$5, -30256(%rbp)
	movl	$5, -30260(%rbp)
	movl	$5, -30264(%rbp)
	movl	$5, -30268(%rbp)
	movl	$5, -30272(%rbp)
	movl	$5, -30276(%rbp)
	movl	$5, -30280(%rbp)
	movl	$5, -30284(%rbp)
	movl	$5, -30288(%rbp)
	movl	$5, -30292(%rbp)
	movl	$5, -30296(%rbp)
	movl	$5, -30300(%rbp)
	movl	$5, -30304(%rbp)
	movl	$5, -30308(%rbp)
	movl	$5, -30312(%rbp)
	movl	$5, -30316(%rbp)
	movl	$5, -30320(%rbp)
	movl	$5, -30324(%rbp)
	movl	$5, -30328(%rbp)
	movl	$5, -30332(%rbp)
	movl	$5, -30336(%rbp)
	movl	$5, -30340(%rbp)
	movl	$5, -30344(%rbp)
	movl	$5, -30348(%rbp)
	movl	$5, -30352(%rbp)
	movl	$5, -30356(%rbp)
	movl	$5, -30360(%rbp)
	movl	$5, -30364(%rbp)
	movl	$5, -30368(%rbp)
	movl	$5, -30372(%rbp)
	movl	$5, -30376(%rbp)
	movl	$5, -30380(%rbp)
	movl	$5, -30384(%rbp)
	movl	$5, -30388(%rbp)
	movl	$5, -30392(%rbp)
	movl	$5, -30396(%rbp)
	movl	$5, -30400(%rbp)
	movl	$5, -30404(%rbp)
	movl	$5, -30408(%rbp)
	movl	$5, -30412(%rbp)
	movl	$5, -30416(%rbp)
	movl	$5, -30420(%rbp)
	movl	$5, -30424(%rbp)
	movl	$5, -30428(%rbp)
	movl	$5, -30432(%rbp)
	movl	$5, -30436(%rbp)
	movl	$5, -30440(%rbp)
	movl	$5, -30444(%rbp)
	movl	$5, -30448(%rbp)
	movl	$5, -30452(%rbp)
	movl	$5, -30456(%rbp)
	movl	$5, -30460(%rbp)
	movl	$5, -30464(%rbp)
	movl	$5, -30468(%rbp)
	movl	$5, -30472(%rbp)
	movl	$5, -30476(%rbp)
	movl	$5, -30480(%rbp)
	movl	$5, -30484(%rbp)
	movl	$5, -30488(%rbp)
	movl	$5, -30492(%rbp)
	movl	$5, -30496(%rbp)
	movl	$5, -30500(%rbp)
	movl	$5, -30504(%rbp)
	movl	$5, -30508(%rbp)
	movl	$5, -30512(%rbp)
	movl	$5, -30516(%rbp)
	movl	$5, -30520(%rbp)
	movl	$5, -30524(%rbp)
	movl	$5, -30528(%rbp)
	movl	$5, -30532(%rbp)
	movl	$5, -30536(%rbp)
	movl	$5, -30540(%rbp)
	movl	$5, -30544(%rbp)
	movl	$5, -30548(%rbp)
	movl	$5, -30552(%rbp)
	movl	$5, -30556(%rbp)
	movl	$5, -30560(%rbp)
	movl	$5, -30564(%rbp)
	movl	$5, -30568(%rbp)
	movl	$5, -30572(%rbp)
	movl	$5, -30576(%rbp)
	movl	$5, -30580(%rbp)
	movl	$5, -30584(%rbp)
	movl	$5, -30588(%rbp)
	movl	$5, -30592(%rbp)
	movl	$5, -30596(%rbp)
	movl	$5, -30600(%rbp)
	movl	$5, -30604(%rbp)
	movl	$5, -30608(%rbp)
	movl	$5, -30612(%rbp)
	movl	$5, -30616(%rbp)
	movl	$5, -30620(%rbp)
	movl	$5, -30624(%rbp)
	movl	$5, -30628(%rbp)
	movl	$5, -30632(%rbp)
	movl	$5, -30636(%rbp)
	movl	$5, -30640(%rbp)
	movl	$5, -30644(%rbp)
	movl	$5, -30648(%rbp)
	movl	$5, -30652(%rbp)
	movl	$5, -30656(%rbp)
	movl	$5, -30660(%rbp)
	movl	$5, -30664(%rbp)
	movl	$5, -30668(%rbp)
	movl	$5, -30672(%rbp)
	movl	$5, -30676(%rbp)
	movl	$5, -30680(%rbp)
	movl	$5, -30684(%rbp)
	movl	$5, -30688(%rbp)
	movl	$5, -30692(%rbp)
	movl	$5, -30696(%rbp)
	movl	$5, -30700(%rbp)
	movl	$5, -30704(%rbp)
	movl	$5, -30708(%rbp)
	movl	$5, -30712(%rbp)
	movl	$5, -30716(%rbp)
	movl	$5, -30720(%rbp)
	movl	$5, -30724(%rbp)
	movl	$5, -30728(%rbp)
	movl	$5, -30732(%rbp)
	movl	$5, -30736(%rbp)
	movl	$5, -30740(%rbp)
	movl	$5, -30744(%rbp)
	movl	$5, -30748(%rbp)
	movl	$5, -30752(%rbp)
	movl	$5, -30756(%rbp)
	movl	$5, -30760(%rbp)
	movl	$5, -30764(%rbp)
	movl	$5, -30768(%rbp)
	movl	$5, -30772(%rbp)
	movl	$5, -30776(%rbp)
	movl	$5, -30780(%rbp)
	movl	$5, -30784(%rbp)
	movl	$5, -30788(%rbp)
	movl	$5, -30792(%rbp)
	movl	$5, -30796(%rbp)
	movl	$5, -30800(%rbp)
	movl	$5, -30804(%rbp)
	movl	$5, -30808(%rbp)
	movl	$5, -30812(%rbp)
	movl	$5, -30816(%rbp)
	movl	$5, -30820(%rbp)
	movl	$5, -30824(%rbp)
	movl	$5, -30828(%rbp)
	movl	$5, -30832(%rbp)
	movl	$5, -30836(%rbp)
	movl	$5, -30840(%rbp)
	movl	$5, -30844(%rbp)
	movl	$5, -30848(%rbp)
	movl	$5, -30852(%rbp)
	movl	$5, -30856(%rbp)
	movl	$5, -30860(%rbp)
	movl	$5, -30864(%rbp)
	movl	$5, -30868(%rbp)
	movl	$5, -30872(%rbp)
	movl	$5, -30876(%rbp)
	movl	$5, -30880(%rbp)
	movl	$5, -30884(%rbp)
	movl	$5, -30888(%rbp)
	movl	$5, -30892(%rbp)
	movl	$5, -30896(%rbp)
	movl	$5, -30900(%rbp)
	movl	$5, -30904(%rbp)
	movl	$5, -30908(%rbp)
	movl	$5, -30912(%rbp)
	movl	$5, -30916(%rbp)
	movl	$5, -30920(%rbp)
	movl	$5, -30924(%rbp)
	movl	$5, -30928(%rbp)
	movl	$5, -30932(%rbp)
	movl	$5, -30936(%rbp)
	movl	$5, -30940(%rbp)
	movl	$5, -30944(%rbp)
	movl	$5, -30948(%rbp)
	movl	$5, -30952(%rbp)
	movl	$5, -30956(%rbp)
	movl	$5, -30960(%rbp)
	movl	$5, -30964(%rbp)
	movl	$5, -30968(%rbp)
	movl	$5, -30972(%rbp)
	movl	$5, -30976(%rbp)
	movl	$5, -30980(%rbp)
	movl	$5, -30984(%rbp)
	movl	$5, -30988(%rbp)
	movl	$5, -30992(%rbp)
	movl	$5, -30996(%rbp)
	movl	$5, -31000(%rbp)
	movl	$5, -31004(%rbp)
	movl	$5, -31008(%rbp)
	movl	$5, -31012(%rbp)
	movl	$5, -31016(%rbp)
	movl	$5, -31020(%rbp)
	movl	$5, -31024(%rbp)
	movl	$5, -31028(%rbp)
	movl	$5, -31032(%rbp)
	movl	$5, -31036(%rbp)
	movl	$5, -31040(%rbp)
	movl	$5, -31044(%rbp)
	movl	$5, -31048(%rbp)
	movl	$5, -31052(%rbp)
	movl	$5, -31056(%rbp)
	movl	$5, -31060(%rbp)
	movl	$5, -31064(%rbp)
	movl	$5, -31068(%rbp)
	movl	$5, -31072(%rbp)
	movl	$5, -31076(%rbp)
	movl	$5, -31080(%rbp)
	movl	$5, -31084(%rbp)
	movl	$5, -31088(%rbp)
	movl	$5, -31092(%rbp)
	movl	$5, -31096(%rbp)
	movl	$5, -31100(%rbp)
	movl	$5, -31104(%rbp)
	movl	$5, -31108(%rbp)
	movl	$5, -31112(%rbp)
	movl	$5, -31116(%rbp)
	movl	$5, -31120(%rbp)
	movl	$5, -31124(%rbp)
	movl	$5, -31128(%rbp)
	movl	$5, -31132(%rbp)
	movl	$5, -31136(%rbp)
	movl	$5, -31140(%rbp)
	movl	$5, -31144(%rbp)
	movl	$5, -31148(%rbp)
	movl	$5, -31152(%rbp)
	movl	$5, -31156(%rbp)
	movl	$5, -31160(%rbp)
	movl	$5, -31164(%rbp)
	movl	$5, -31168(%rbp)
	movl	$5, -31172(%rbp)
	movl	$5, -31176(%rbp)
	movl	$5, -31180(%rbp)
	movl	$5, -31184(%rbp)
	movl	$5, -31188(%rbp)
	movl	$5, -31192(%rbp)
	movl	$5, -31196(%rbp)
	movl	$5, -31200(%rbp)
	movl	$5, -31204(%rbp)
	movl	$5, -31208(%rbp)
	movl	$5, -31212(%rbp)
	movl	$5, -31216(%rbp)
	movl	$5, -31220(%rbp)
	movl	$5, -31224(%rbp)
	movl	$5, -31228(%rbp)
	movl	$5, -31232(%rbp)
	movl	$5, -31236(%rbp)
	movl	$5, -31240(%rbp)
	movl	$5, -31244(%rbp)
	movl	$5, -31248(%rbp)
	movl	$5, -31252(%rbp)
	movl	$5, -31256(%rbp)
	movl	$5, -31260(%rbp)
	movl	$5, -31264(%rbp)
	movl	$5, -31268(%rbp)
	movl	$5, -31272(%rbp)
	movl	$5, -31276(%rbp)
	movl	$5, -31280(%rbp)
	movl	$5, -31284(%rbp)
	movl	$5, -31288(%rbp)
	movl	$5, -31292(%rbp)
	movl	$5, -31296(%rbp)
	movl	$5, -31300(%rbp)
	movl	$5, -31304(%rbp)
	movl	$5, -31308(%rbp)
	movl	$5, -31312(%rbp)
	movl	$5, -31316(%rbp)
	movl	$5, -31320(%rbp)
	movl	$5, -31324(%rbp)
	movl	$5, -31328(%rbp)
	movl	$5, -31332(%rbp)
	movl	$5, -31336(%rbp)
	movl	$5, -31340(%rbp)
	movl	$5, -31344(%rbp)
	movl	$5, -31348(%rbp)
	movl	$5, -31352(%rbp)
	movl	$5, -31356(%rbp)
	movl	$5, -31360(%rbp)
	movl	$5, -31364(%rbp)
	movl	$5, -31368(%rbp)
	movl	$5, -31372(%rbp)
	movl	$5, -31376(%rbp)
	movl	$5, -31380(%rbp)
	movl	$5, -31384(%rbp)
	movl	$5, -31388(%rbp)
	movl	$5, -31392(%rbp)
	movl	$5, -31396(%rbp)
	movl	$5, -31400(%rbp)
	movl	$5, -31404(%rbp)
	movl	$5, -31408(%rbp)
	movl	$5, -31412(%rbp)
	movl	$5, -31416(%rbp)
	movl	$5, -31420(%rbp)
	movl	$5, -31424(%rbp)
	movl	$5, -31428(%rbp)
	movl	$5, -31432(%rbp)
	movl	$5, -31436(%rbp)
	movl	$5, -31440(%rbp)
	movl	$5, -31444(%rbp)
	movl	$5, -31448(%rbp)
	movl	$5, -31452(%rbp)
	movl	$5, -31456(%rbp)
	movl	$5, -31460(%rbp)
	movl	$5, -31464(%rbp)
	movl	$5, -31468(%rbp)
	movl	$5, -31472(%rbp)
	movl	$5, -31476(%rbp)
	movl	$5, -31480(%rbp)
	movl	$5, -31484(%rbp)
	movl	$5, -31488(%rbp)
	movl	$5, -31492(%rbp)
	movl	$5, -31496(%rbp)
	movl	$5, -31500(%rbp)
	movl	$5, -31504(%rbp)
	movl	$5, -31508(%rbp)
	movl	$5, -31512(%rbp)
	movl	$5, -31516(%rbp)
	movl	$5, -31520(%rbp)
	movl	$5, -31524(%rbp)
	movl	$5, -31528(%rbp)
	movl	$5, -31532(%rbp)
	movl	$5, -31536(%rbp)
	movl	$5, -31540(%rbp)
	movl	$5, -31544(%rbp)
	movl	$5, -31548(%rbp)
	movl	$5, -31552(%rbp)
	movl	$5, -31556(%rbp)
	movl	$5, -31560(%rbp)
	movl	$5, -31564(%rbp)
	movl	$5, -31568(%rbp)
	movl	$5, -31572(%rbp)
	movl	$5, -31576(%rbp)
	movl	$5, -31580(%rbp)
	movl	$5, -31584(%rbp)
	movl	$5, -31588(%rbp)
	movl	$5, -31592(%rbp)
	movl	$5, -31596(%rbp)
	movl	$5, -31600(%rbp)
	movl	$5, -31604(%rbp)
	movl	$5, -31608(%rbp)
	movl	$5, -31612(%rbp)
	movl	$5, -31616(%rbp)
	movl	$5, -31620(%rbp)
	movl	$5, -31624(%rbp)
	movl	$5, -31628(%rbp)
	movl	$5, -31632(%rbp)
	movl	$5, -31636(%rbp)
	movl	$5, -31640(%rbp)
	movl	$5, -31644(%rbp)
	movl	$5, -31648(%rbp)
	movl	$5, -31652(%rbp)
	movl	$5, -31656(%rbp)
	movl	$5, -31660(%rbp)
	movl	$5, -31664(%rbp)
	movl	$5, -31668(%rbp)
	movl	$5, -31672(%rbp)
	movl	$5, -31676(%rbp)
	movl	$5, -31680(%rbp)
	movl	$5, -31684(%rbp)
	movl	$5, -31688(%rbp)
	movl	$5, -31692(%rbp)
	movl	$5, -31696(%rbp)
	movl	$5, -31700(%rbp)
	movl	$5, -31704(%rbp)
	movl	$5, -31708(%rbp)
	movl	$5, -31712(%rbp)
	movl	$5, -31716(%rbp)
	movl	$5, -31720(%rbp)
	movl	$5, -31724(%rbp)
	movl	$5, -31728(%rbp)
	movl	$5, -31732(%rbp)
	movl	$5, -31736(%rbp)
	movl	$5, -31740(%rbp)
	movl	$5, -31744(%rbp)
	movl	$5, -31748(%rbp)
	movl	$5, -31752(%rbp)
	movl	$5, -31756(%rbp)
	movl	$5, -31760(%rbp)
	movl	$5, -31764(%rbp)
	movl	$5, -31768(%rbp)
	movl	$5, -31772(%rbp)
	movl	$5, -31776(%rbp)
	movl	$5, -31780(%rbp)
	movl	$5, -31784(%rbp)
	movl	$5, -31788(%rbp)
	movl	$5, -31792(%rbp)
	movl	$5, -31796(%rbp)
	movl	$5, -31800(%rbp)
	movl	$5, -31804(%rbp)
	movl	$5, -31808(%rbp)
	movl	$5, -31812(%rbp)
	movl	$5, -31816(%rbp)
	movl	$5, -31820(%rbp)
	movl	$5, -31824(%rbp)
	movl	$5, -31828(%rbp)
	movl	$5, -31832(%rbp)
	movl	$5, -31836(%rbp)
	movl	$5, -31840(%rbp)
	movl	$5, -31844(%rbp)
	movl	$5, -31848(%rbp)
	movl	$5, -31852(%rbp)
	movl	$5, -31856(%rbp)
	movl	$5, -31860(%rbp)
	movl	$5, -31864(%rbp)
	movl	$5, -31868(%rbp)
	movl	$5, -31872(%rbp)
	movl	$5, -31876(%rbp)
	movl	$5, -31880(%rbp)
	movl	$5, -31884(%rbp)
	movl	$5, -31888(%rbp)
	movl	$5, -31892(%rbp)
	movl	$5, -31896(%rbp)
	movl	$5, -31900(%rbp)
	movl	$5, -31904(%rbp)
	movl	$5, -31908(%rbp)
	movl	$5, -31912(%rbp)
	movl	$5, -31916(%rbp)
	movl	$5, -31920(%rbp)
	movl	$5, -31924(%rbp)
	movl	$5, -31928(%rbp)
	movl	$5, -31932(%rbp)
	movl	$5, -31936(%rbp)
	movl	$5, -31940(%rbp)
	movl	$5, -31944(%rbp)
	movl	$5, -31948(%rbp)
	movl	$5, -31952(%rbp)
	movl	$5, -31956(%rbp)
	movl	$5, -31960(%rbp)
	movl	$5, -31964(%rbp)
	movl	$5, -31968(%rbp)
	movl	$5, -31972(%rbp)
	movl	$5, -31976(%rbp)
	movl	$5, -31980(%rbp)
	movl	$5, -31984(%rbp)
	movl	$5, -31988(%rbp)
	movl	$5, -31992(%rbp)
	movl	$5, -31996(%rbp)
	movl	$5, -32000(%rbp)
	movl	$5, -32004(%rbp)
	movl	$5, -32008(%rbp)
	movl	$5, -32012(%rbp)
	movl	$5, -32016(%rbp)
	movl	$5, -32020(%rbp)
	movl	$5, -32024(%rbp)
	movl	$5, -32028(%rbp)
	movl	$5, -32032(%rbp)
	movl	$5, -32036(%rbp)
	movl	$5, -32040(%rbp)
	movl	$5, -32044(%rbp)
	movl	$5, -32048(%rbp)
	movl	$5, -32052(%rbp)
	movl	$5, -32056(%rbp)
	movl	$5, -32060(%rbp)
	movl	$5, -32064(%rbp)
	movl	$5, -32068(%rbp)
	movl	$5, -32072(%rbp)
	movl	$5, -32076(%rbp)
	movl	$5, -32080(%rbp)
	movl	$5, -32084(%rbp)
	movl	$5, -32088(%rbp)
	movl	$5, -32092(%rbp)
	movl	$5, -32096(%rbp)
	movl	$5, -32100(%rbp)
	movl	$5, -32104(%rbp)
	movl	$5, -32108(%rbp)
	movl	$5, -32112(%rbp)
	movl	$5, -32116(%rbp)
	movl	$5, -32120(%rbp)
	movl	$5, -32124(%rbp)
	movl	$5, -32128(%rbp)
	movl	$5, -32132(%rbp)
	movl	$5, -32136(%rbp)
	movl	$5, -32140(%rbp)
	movl	$5, -32144(%rbp)
	movl	$5, -32148(%rbp)
	movl	$5, -32152(%rbp)
	movl	$5, -32156(%rbp)
	movl	$5, -32160(%rbp)
	movl	$5, -32164(%rbp)
	movl	$5, -32168(%rbp)
	movl	$5, -32172(%rbp)
	movl	$5, -32176(%rbp)
	movl	$5, -32180(%rbp)
	movl	$5, -32184(%rbp)
	movl	$5, -32188(%rbp)
	movl	$5, -32192(%rbp)
	movl	$5, -32196(%rbp)
	movl	$5, -32200(%rbp)
	movl	$5, -32204(%rbp)
	movl	$5, -32208(%rbp)
	movl	$5, -32212(%rbp)
	movl	$5, -32216(%rbp)
	movl	$5, -32220(%rbp)
	movl	$5, -32224(%rbp)
	movl	$5, -32228(%rbp)
	movl	$5, -32232(%rbp)
	movl	$5, -32236(%rbp)
	movl	$5, -32240(%rbp)
	movl	$5, -32244(%rbp)
	movl	$5, -32248(%rbp)
	movl	$5, -32252(%rbp)
	movl	$5, -32256(%rbp)
	movl	$5, -32260(%rbp)
	movl	$5, -32264(%rbp)
	movl	$5, -32268(%rbp)
	movl	$5, -32272(%rbp)
	movl	$5, -32276(%rbp)
	movl	$5, -32280(%rbp)
	movl	$5, -32284(%rbp)
	movl	$5, -32288(%rbp)
	movl	$5, -32292(%rbp)
	movl	$5, -32296(%rbp)
	movl	$5, -32300(%rbp)
	movl	$5, -32304(%rbp)
	movl	$5, -32308(%rbp)
	movl	$5, -32312(%rbp)
	movl	$5, -32316(%rbp)
	movl	$5, -32320(%rbp)
	movl	$5, -32324(%rbp)
	movl	$5, -32328(%rbp)
	movl	$5, -32332(%rbp)
	movl	$5, -32336(%rbp)
	movl	$5, -32340(%rbp)
	movl	$5, -32344(%rbp)
	movl	$5, -32348(%rbp)
	movl	$5, -32352(%rbp)
	movl	$5, -32356(%rbp)
	movl	$5, -32360(%rbp)
	movl	$5, -32364(%rbp)
	movl	$5, -32368(%rbp)
	movl	$5, -32372(%rbp)
	movl	$5, -32376(%rbp)
	movl	$5, -32380(%rbp)
	movl	$5, -32384(%rbp)
	movl	$5, -32388(%rbp)
	movl	$5, -32392(%rbp)
	movl	$5, -32396(%rbp)
	movl	$5, -32400(%rbp)
	movl	$5, -32404(%rbp)
	movl	$5, -32408(%rbp)
	movl	$5, -32412(%rbp)
	movl	$5, -32416(%rbp)
	movl	$5, -32420(%rbp)
	movl	$5, -32424(%rbp)
	movl	$5, -32428(%rbp)
	movl	$5, -32432(%rbp)
	movl	$5, -32436(%rbp)
	movl	$5, -32440(%rbp)
	movl	$5, -32444(%rbp)
	movl	$5, -32448(%rbp)
	movl	$5, -32452(%rbp)
	movl	$5, -32456(%rbp)
	movl	$5, -32460(%rbp)
	movl	$5, -32464(%rbp)
	movl	$5, -32468(%rbp)
	movl	$5, -32472(%rbp)
	movl	$5, -32476(%rbp)
	movl	$5, -32480(%rbp)
	movl	$5, -32484(%rbp)
	movl	$5, -32488(%rbp)
	movl	$5, -32492(%rbp)
	movl	$5, -32496(%rbp)
	movl	$5, -32500(%rbp)
	movl	$5, -32504(%rbp)
	movl	$5, -32508(%rbp)
	movl	$5, -32512(%rbp)
	movl	$5, -32516(%rbp)
	movl	$5, -32520(%rbp)
	movl	$5, -32524(%rbp)
	movl	$5, -32528(%rbp)
	movl	$5, -32532(%rbp)
	movl	$5, -32536(%rbp)
	movl	$5, -32540(%rbp)
	movl	$5, -32544(%rbp)
	movl	$5, -32548(%rbp)
	movl	$5, -32552(%rbp)
	movl	$5, -32556(%rbp)
	movl	$5, -32560(%rbp)
	movl	$5, -32564(%rbp)
	movl	$5, -32568(%rbp)
	movl	$5, -32572(%rbp)
	movl	$5, -32576(%rbp)
	movl	$5, -32580(%rbp)
	movl	$5, -32584(%rbp)
	movl	$5, -32588(%rbp)
	movl	$5, -32592(%rbp)
	movl	$5, -32596(%rbp)
	movl	$5, -32600(%rbp)
	movl	$5, -32604(%rbp)
	movl	$5, -32608(%rbp)
	movl	$5, -32612(%rbp)
	movl	$5, -32616(%rbp)
	movl	$5, -32620(%rbp)
	movl	$5, -32624(%rbp)
	movl	$5, -32628(%rbp)
	movl	$5, -32632(%rbp)
	movl	$5, -32636(%rbp)
	movl	$5, -32640(%rbp)
	movl	$5, -32644(%rbp)
	movl	$5, -32648(%rbp)
	movl	$5, -32652(%rbp)
	movl	$5, -32656(%rbp)
	movl	$5, -32660(%rbp)
	movl	$5, -32664(%rbp)
	movl	$5, -32668(%rbp)
	movl	$5, -32672(%rbp)
	movl	$5, -32676(%rbp)
	movl	$5, -32680(%rbp)
	movl	$5, -32684(%rbp)
	movl	$5, -32688(%rbp)
	movl	$5, -32692(%rbp)
	movl	$5, -32696(%rbp)
	movl	$5, -32700(%rbp)
	movl	$5, -32704(%rbp)
	movl	$5, -32708(%rbp)
	movl	$5, -32712(%rbp)
	movl	$5, -32716(%rbp)
	movl	$5, -32720(%rbp)
	movl	$5, -32724(%rbp)
	movl	$5, -32728(%rbp)
	movl	$5, -32732(%rbp)
	movl	$5, -32736(%rbp)
	movl	$5, -32740(%rbp)
	movl	$5, -32744(%rbp)
	movl	$5, -32748(%rbp)
	movl	$5, -32752(%rbp)
	movl	$5, -32756(%rbp)
	movl	$5, -32760(%rbp)
	movl	$5, -32764(%rbp)
	movl	$5, -32768(%rbp)
	movl	$5, -32772(%rbp)
	movl	$5, -32776(%rbp)
	movl	$5, -32780(%rbp)
	movl	$5, -32784(%rbp)
	movl	$5, -32788(%rbp)
	movl	$5, -32792(%rbp)
	movl	$5, -32796(%rbp)
	movl	$5, -32800(%rbp)
	movl	$5, -32804(%rbp)
	movl	$5, -32808(%rbp)
	movl	$5, -32812(%rbp)
	movl	$5, -32816(%rbp)
	movl	$5, -32820(%rbp)
	movl	$5, -32824(%rbp)
	movl	$5, -32828(%rbp)
	movl	$5, -32832(%rbp)
	movl	$5, -32836(%rbp)
	movl	$5, -32840(%rbp)
	movl	$5, -32844(%rbp)
	movl	$5, -32848(%rbp)
	movl	$5, -32852(%rbp)
	movl	$5, -32856(%rbp)
	movl	$5, -32860(%rbp)
	movl	$5, -32864(%rbp)
	movl	$5, -32868(%rbp)
	movl	$5, -32872(%rbp)
	movl	$5, -32876(%rbp)
	movl	$5, -32880(%rbp)
	movl	$5, -32884(%rbp)
	movl	$5, -32888(%rbp)
	movl	$5, -32892(%rbp)
	movl	$5, -32896(%rbp)
	movl	$5, -32900(%rbp)
	movl	$5, -32904(%rbp)
	movl	$5, -32908(%rbp)
	movl	$5, -32912(%rbp)
	movl	$5, -32916(%rbp)
	movl	$5, -32920(%rbp)
	movl	$5, -32924(%rbp)
	movl	$5, -32928(%rbp)
	movl	$5, -32932(%rbp)
	movl	$5, -32936(%rbp)
	movl	$5, -32940(%rbp)
	movl	$5, -32944(%rbp)
	movl	$5, -32948(%rbp)
	movl	$5, -32952(%rbp)
	movl	$5, -32956(%rbp)
	movl	$5, -32960(%rbp)
	movl	$5, -32964(%rbp)
	movl	$5, -32968(%rbp)
	movl	$5, -32972(%rbp)
	movl	$5, -32976(%rbp)
	movl	$5, -32980(%rbp)
	movl	$5, -32984(%rbp)
	movl	$5, -32988(%rbp)
	movl	$5, -32992(%rbp)
	movl	$5, -32996(%rbp)
	movl	$5, -33000(%rbp)
	movl	$5, -33004(%rbp)
	movl	$5, -33008(%rbp)
	movl	$5, -33012(%rbp)
	movl	$5, -33016(%rbp)
	movl	$5, -33020(%rbp)
	movl	$5, -33024(%rbp)
	movl	$5, -33028(%rbp)
	movl	$5, -33032(%rbp)
	movl	$5, -33036(%rbp)
	movl	$5, -33040(%rbp)
	movl	$5, -33044(%rbp)
	movl	$5, -33048(%rbp)
	movl	$5, -33052(%rbp)
	movl	$5, -33056(%rbp)
	movl	$5, -33060(%rbp)
	movl	$5, -33064(%rbp)
	movl	$5, -33068(%rbp)
	movl	$5, -33072(%rbp)
	movl	$5, -33076(%rbp)
	movl	$5, -33080(%rbp)
	movl	$5, -33084(%rbp)
	movl	$5, -33088(%rbp)
	movl	$5, -33092(%rbp)
	movl	$5, -33096(%rbp)
	movl	$5, -33100(%rbp)
	movl	$5, -33104(%rbp)
	movl	$5, -33108(%rbp)
	movl	$5, -33112(%rbp)
	movl	$5, -33116(%rbp)
	movl	$5, -33120(%rbp)
	movl	$5, -33124(%rbp)
	movl	$5, -33128(%rbp)
	movl	$5, -33132(%rbp)
	movl	$5, -33136(%rbp)
	movl	$5, -33140(%rbp)
	movl	$5, -33144(%rbp)
	movl	$5, -33148(%rbp)
	movl	$5, -33152(%rbp)
	movl	$5, -33156(%rbp)
	movl	$5, -33160(%rbp)
	movl	$5, -33164(%rbp)
	movl	$5, -33168(%rbp)
	movl	$5, -33172(%rbp)
	movl	$5, -33176(%rbp)
	movl	$5, -33180(%rbp)
	movl	$5, -33184(%rbp)
	movl	$5, -33188(%rbp)
	movl	$5, -33192(%rbp)
	movl	$5, -33196(%rbp)
	movl	$5, -33200(%rbp)
	movl	$5, -33204(%rbp)
	movl	$5, -33208(%rbp)
	movl	$5, -33212(%rbp)
	movl	$5, -33216(%rbp)
	movl	$5, -33220(%rbp)
	movl	$5, -33224(%rbp)
	movl	$5, -33228(%rbp)
	movl	$5, -33232(%rbp)
	movl	$5, -33236(%rbp)
	movl	$5, -33240(%rbp)
	movl	$5, -33244(%rbp)
	movl	$5, -33248(%rbp)
	movl	$5, -33252(%rbp)
	movl	$5, -33256(%rbp)
	movl	$5, -33260(%rbp)
	movl	$5, -33264(%rbp)
	movl	$5, -33268(%rbp)
	movl	$5, -33272(%rbp)
	movl	$5, -33276(%rbp)
	movl	$5, -33280(%rbp)
	movl	$5, -33284(%rbp)
	movl	$5, -33288(%rbp)
	movl	$5, -33292(%rbp)
	movl	$5, -33296(%rbp)
	movl	$5, -33300(%rbp)
	movl	$5, -33304(%rbp)
	movl	$5, -33308(%rbp)
	movl	$5, -33312(%rbp)
	movl	$5, -33316(%rbp)
	movl	$5, -33320(%rbp)
	movl	$5, -33324(%rbp)
	movl	$5, -33328(%rbp)
	movl	$5, -33332(%rbp)
	movl	$5, -33336(%rbp)
	movl	$5, -33340(%rbp)
	movl	$5, -33344(%rbp)
	movl	$5, -33348(%rbp)
	movl	$5, -33352(%rbp)
	movl	$5, -33356(%rbp)
	movl	$5, -33360(%rbp)
	movl	$5, -33364(%rbp)
	movl	$5, -33368(%rbp)
	movl	$5, -33372(%rbp)
	movl	$5, -33376(%rbp)
	movl	$5, -33380(%rbp)
	movl	$5, -33384(%rbp)
	movl	$5, -33388(%rbp)
	movl	$5, -33392(%rbp)
	movl	$5, -33396(%rbp)
	movl	$5, -33400(%rbp)
	movl	$5, -33404(%rbp)
	movl	$5, -33408(%rbp)
	movl	$5, -33412(%rbp)
	movl	$5, -33416(%rbp)
	movl	$5, -33420(%rbp)
	movl	$5, -33424(%rbp)
	movl	$5, -33428(%rbp)
	movl	$5, -33432(%rbp)
	movl	$5, -33436(%rbp)
	movl	$5, -33440(%rbp)
	movl	$5, -33444(%rbp)
	movl	$5, -33448(%rbp)
	movl	$5, -33452(%rbp)
	movl	$5, -33456(%rbp)
	movl	$5, -33460(%rbp)
	movl	$5, -33464(%rbp)
	movl	$5, -33468(%rbp)
	movl	$5, -33472(%rbp)
	movl	$5, -33476(%rbp)
	movl	$5, -33480(%rbp)
	movl	$5, -33484(%rbp)
	movl	$5, -33488(%rbp)
	movl	$5, -33492(%rbp)
	movl	$5, -33496(%rbp)
	movl	$5, -33500(%rbp)
	movl	$5, -33504(%rbp)
	movl	$5, -33508(%rbp)
	movl	$5, -33512(%rbp)
	movl	$5, -33516(%rbp)
	movl	$5, -33520(%rbp)
	movl	$5, -33524(%rbp)
	movl	$5, -33528(%rbp)
	movl	$5, -33532(%rbp)
	movl	$5, -33536(%rbp)
	movl	$5, -33540(%rbp)
	movl	$5, -33544(%rbp)
	movl	$5, -33548(%rbp)
	movl	$5, -33552(%rbp)
	movl	$5, -33556(%rbp)
	movl	$5, -33560(%rbp)
	movl	$5, -33564(%rbp)
	movl	$5, -33568(%rbp)
	movl	$5, -33572(%rbp)
	movl	$5, -33576(%rbp)
	movl	$5, -33580(%rbp)
	movl	$5, -33584(%rbp)
	movl	$5, -33588(%rbp)
	movl	$5, -33592(%rbp)
	movl	$5, -33596(%rbp)
	movl	$5, -33600(%rbp)
	movl	$5, -33604(%rbp)
	movl	$5, -33608(%rbp)
	movl	$5, -33612(%rbp)
	movl	$5, -33616(%rbp)
	movl	$5, -33620(%rbp)
	movl	$5, -33624(%rbp)
	movl	$5, -33628(%rbp)
	movl	$5, -33632(%rbp)
	movl	$5, -33636(%rbp)
	movl	$5, -33640(%rbp)
	movl	$5, -33644(%rbp)
	movl	$5, -33648(%rbp)
	movl	$5, -33652(%rbp)
	movl	$5, -33656(%rbp)
	movl	$5, -33660(%rbp)
	movl	$5, -33664(%rbp)
	movl	$5, -33668(%rbp)
	movl	$5, -33672(%rbp)
	movl	$5, -33676(%rbp)
	movl	$5, -33680(%rbp)
	movl	$5, -33684(%rbp)
	movl	$5, -33688(%rbp)
	movl	$5, -33692(%rbp)
	movl	$5, -33696(%rbp)
	movl	$5, -33700(%rbp)
	movl	$5, -33704(%rbp)
	movl	$5, -33708(%rbp)
	movl	$5, -33712(%rbp)
	movl	$5, -33716(%rbp)
	movl	$5, -33720(%rbp)
	movl	$5, -33724(%rbp)
	movl	$5, -33728(%rbp)
	movl	$5, -33732(%rbp)
	movl	$5, -33736(%rbp)
	movl	$5, -33740(%rbp)
	movl	$5, -33744(%rbp)
	movl	$5, -33748(%rbp)
	movl	$5, -33752(%rbp)
	movl	$5, -33756(%rbp)
	movl	$5, -33760(%rbp)
	movl	$5, -33764(%rbp)
	movl	$5, -33768(%rbp)
	movl	$5, -33772(%rbp)
	movl	$5, -33776(%rbp)
	movl	$5, -33780(%rbp)
	movl	$5, -33784(%rbp)
	movl	$5, -33788(%rbp)
	movl	$5, -33792(%rbp)
	movl	$5, -33796(%rbp)
	movl	$5, -33800(%rbp)
	movl	$5, -33804(%rbp)
	movl	$5, -33808(%rbp)
	movl	$5, -33812(%rbp)
	movl	$5, -33816(%rbp)
	movl	$5, -33820(%rbp)
	movl	$5, -33824(%rbp)
	movl	$5, -33828(%rbp)
	movl	$5, -33832(%rbp)
	movl	$5, -33836(%rbp)
	movl	$5, -33840(%rbp)
	movl	$5, -33844(%rbp)
	movl	$5, -33848(%rbp)
	movl	$5, -33852(%rbp)
	movl	$5, -33856(%rbp)
	movl	$5, -33860(%rbp)
	movl	$5, -33864(%rbp)
	movl	$5, -33868(%rbp)
	movl	$5, -33872(%rbp)
	movl	$5, -33876(%rbp)
	movl	$5, -33880(%rbp)
	movl	$5, -33884(%rbp)
	movl	$5, -33888(%rbp)
	movl	$5, -33892(%rbp)
	movl	$5, -33896(%rbp)
	movl	$5, -33900(%rbp)
	movl	$5, -33904(%rbp)
	movl	$5, -33908(%rbp)
	movl	$5, -33912(%rbp)
	movl	$5, -33916(%rbp)
	movl	$5, -33920(%rbp)
	movl	$5, -33924(%rbp)
	movl	$5, -33928(%rbp)
	movl	$5, -33932(%rbp)
	movl	$5, -33936(%rbp)
	movl	$5, -33940(%rbp)
	movl	$5, -33944(%rbp)
	movl	$5, -33948(%rbp)
	movl	$5, -33952(%rbp)
	movl	$5, -33956(%rbp)
	movl	$5, -33960(%rbp)
	movl	$5, -33964(%rbp)
	movl	$5, -33968(%rbp)
	movl	$5, -33972(%rbp)
	movl	$5, -33976(%rbp)
	movl	$5, -33980(%rbp)
	movl	$5, -33984(%rbp)
	movl	$5, -33988(%rbp)
	movl	$5, -33992(%rbp)
	movl	$5, -33996(%rbp)
	movl	$5, -34000(%rbp)
	movl	$5, -34004(%rbp)
	movl	$5, -34008(%rbp)
	movl	$5, -34012(%rbp)
	movl	$5, -34016(%rbp)
	movl	$5, -34020(%rbp)
	movl	$5, -34024(%rbp)
	movl	$5, -34028(%rbp)
	movl	$5, -34032(%rbp)
	movl	$5, -34036(%rbp)
	movl	$5, -34040(%rbp)
	movl	$5, -34044(%rbp)
	movl	$5, -34048(%rbp)
	movl	$5, -34052(%rbp)
	movl	$5, -34056(%rbp)
	movl	$5, -34060(%rbp)
	movl	$5, -34064(%rbp)
	movl	$5, -34068(%rbp)
	movl	$5, -34072(%rbp)
	movl	$5, -34076(%rbp)
	movl	$5, -34080(%rbp)
	movl	$5, -34084(%rbp)
	movl	$5, -34088(%rbp)
	movl	$5, -34092(%rbp)
	movl	$5, -34096(%rbp)
	movl	$5, -34100(%rbp)
	movl	$5, -34104(%rbp)
	movl	$5, -34108(%rbp)
	movl	$5, -34112(%rbp)
	movl	$5, -34116(%rbp)
	movl	$5, -34120(%rbp)
	movl	$5, -34124(%rbp)
	movl	$5, -34128(%rbp)
	movl	$5, -34132(%rbp)
	movl	$5, -34136(%rbp)
	movl	$5, -34140(%rbp)
	movl	$5, -34144(%rbp)
	movl	$5, -34148(%rbp)
	movl	$5, -34152(%rbp)
	movl	$5, -34156(%rbp)
	movl	$5, -34160(%rbp)
	movl	$5, -34164(%rbp)
	movl	$5, -34168(%rbp)
	movl	$5, -34172(%rbp)
	movl	$5, -34176(%rbp)
	movl	$5, -34180(%rbp)
	movl	$5, -34184(%rbp)
	movl	$5, -34188(%rbp)
	movl	$5, -34192(%rbp)
	movl	$5, -34196(%rbp)
	movl	$5, -34200(%rbp)
	movl	$5, -34204(%rbp)
	movl	$5, -34208(%rbp)
	movl	$5, -34212(%rbp)
	movl	$5, -34216(%rbp)
	movl	$5, -34220(%rbp)
	movl	$5, -34224(%rbp)
	movl	$5, -34228(%rbp)
	movl	$5, -34232(%rbp)
	movl	$5, -34236(%rbp)
	movl	$5, -34240(%rbp)
	movl	$5, -34244(%rbp)
	movl	$5, -34248(%rbp)
	movl	$5, -34252(%rbp)
	movl	$5, -34256(%rbp)
	movl	$5, -34260(%rbp)
	movl	$5, -34264(%rbp)
	movl	$5, -34268(%rbp)
	movl	$5, -34272(%rbp)
	movl	$5, -34276(%rbp)
	movl	$5, -34280(%rbp)
	movl	$5, -34284(%rbp)
	movl	$5, -34288(%rbp)
	movl	$5, -34292(%rbp)
	movl	$5, -34296(%rbp)
	movl	$5, -34300(%rbp)
	movl	$5, -34304(%rbp)
	movl	$5, -34308(%rbp)
	movl	$5, -34312(%rbp)
	movl	$5, -34316(%rbp)
	movl	$5, -34320(%rbp)
	movl	$5, -34324(%rbp)
	movl	$5, -34328(%rbp)
	movl	$5, -34332(%rbp)
	movl	$5, -34336(%rbp)
	movl	$5, -34340(%rbp)
	movl	$5, -34344(%rbp)
	movl	$5, -34348(%rbp)
	movl	$5, -34352(%rbp)
	movl	$5, -34356(%rbp)
	movl	$5, -34360(%rbp)
	movl	$5, -34364(%rbp)
	movl	$5, -34368(%rbp)
	movl	$5, -34372(%rbp)
	movl	$5, -34376(%rbp)
	movl	$5, -34380(%rbp)
	movl	$5, -34384(%rbp)
	movl	$5, -34388(%rbp)
	movl	$5, -34392(%rbp)
	movl	$5, -34396(%rbp)
	movl	$5, -34400(%rbp)
	movl	$5, -34404(%rbp)
	movl	$5, -34408(%rbp)
	movl	$5, -34412(%rbp)
	movl	$5, -34416(%rbp)
	movl	$5, -34420(%rbp)
	movl	$5, -34424(%rbp)
	movl	$5, -34428(%rbp)
	movl	$5, -34432(%rbp)
	movl	$5, -34436(%rbp)
	movl	$5, -34440(%rbp)
	movl	$5, -34444(%rbp)
	movl	$5, -34448(%rbp)
	movl	$5, -34452(%rbp)
	movl	$5, -34456(%rbp)
	movl	$5, -34460(%rbp)
	movl	$5, -34464(%rbp)
	movl	$5, -34468(%rbp)
	movl	$5, -34472(%rbp)
	movl	$5, -34476(%rbp)
	movl	$5, -34480(%rbp)
	movl	$5, -34484(%rbp)
	movl	$5, -34488(%rbp)
	movl	$5, -34492(%rbp)
	movl	$5, -34496(%rbp)
	movl	$5, -34500(%rbp)
	movl	$5, -34504(%rbp)
	movl	$5, -34508(%rbp)
	movl	$5, -34512(%rbp)
	movl	$5, -34516(%rbp)
	movl	$5, -34520(%rbp)
	movl	$5, -34524(%rbp)
	movl	$5, -34528(%rbp)
	movl	$5, -34532(%rbp)
	movl	$5, -34536(%rbp)
	movl	$5, -34540(%rbp)
	movl	$5, -34544(%rbp)
	movl	$5, -34548(%rbp)
	movl	$5, -34552(%rbp)
	movl	$5, -34556(%rbp)
	movl	$5, -34560(%rbp)
	movl	$5, -34564(%rbp)
	movl	$5, -34568(%rbp)
	movl	$5, -34572(%rbp)
	movl	$5, -34576(%rbp)
	movl	$5, -34580(%rbp)
	movl	$5, -34584(%rbp)
	movl	$5, -34588(%rbp)
	movl	$5, -34592(%rbp)
	movl	$5, -34596(%rbp)
	movl	$5, -34600(%rbp)
	movl	$5, -34604(%rbp)
	movl	$5, -34608(%rbp)
	movl	$5, -34612(%rbp)
	movl	$5, -34616(%rbp)
	movl	$5, -34620(%rbp)
	movl	$5, -34624(%rbp)
	movl	$5, -34628(%rbp)
	movl	$5, -34632(%rbp)
	movl	$5, -34636(%rbp)
	movl	$5, -34640(%rbp)
	movl	$5, -34644(%rbp)
	movl	$5, -34648(%rbp)
	movl	$5, -34652(%rbp)
	movl	$5, -34656(%rbp)
	movl	$5, -34660(%rbp)
	movl	$5, -34664(%rbp)
	movl	$5, -34668(%rbp)
	movl	$5, -34672(%rbp)
	movl	$5, -34676(%rbp)
	movl	$5, -34680(%rbp)
	movl	$5, -34684(%rbp)
	movl	$5, -34688(%rbp)
	movl	$5, -34692(%rbp)
	movl	$5, -34696(%rbp)
	movl	$5, -34700(%rbp)
	movl	$5, -34704(%rbp)
	movl	$5, -34708(%rbp)
	movl	$5, -34712(%rbp)
	movl	$5, -34716(%rbp)
	movl	$5, -34720(%rbp)
	movl	$5, -34724(%rbp)
	movl	$5, -34728(%rbp)
	movl	$5, -34732(%rbp)
	movl	$5, -34736(%rbp)
	movl	$5, -34740(%rbp)
	movl	$5, -34744(%rbp)
	movl	$5, -34748(%rbp)
	movl	$5, -34752(%rbp)
	movl	$5, -34756(%rbp)
	movl	$5, -34760(%rbp)
	movl	$5, -34764(%rbp)
	movl	$5, -34768(%rbp)
	movl	$5, -34772(%rbp)
	movl	$5, -34776(%rbp)
	movl	$5, -34780(%rbp)
	movl	$5, -34784(%rbp)
	movl	$5, -34788(%rbp)
	movl	$5, -34792(%rbp)
	movl	$5, -34796(%rbp)
	movl	$5, -34800(%rbp)
	movl	$5, -34804(%rbp)
	movl	$5, -34808(%rbp)
	movl	$5, -34812(%rbp)
	movl	$5, -34816(%rbp)
	movl	$5, -34820(%rbp)
	movl	$5, -34824(%rbp)
	movl	$5, -34828(%rbp)
	movl	$5, -34832(%rbp)
	movl	$5, -34836(%rbp)
	movl	$5, -34840(%rbp)
	movl	$5, -34844(%rbp)
	movl	$5, -34848(%rbp)
	movl	$5, -34852(%rbp)
	movl	$5, -34856(%rbp)
	movl	$5, -34860(%rbp)
	movl	$5, -34864(%rbp)
	movl	$5, -34868(%rbp)
	movl	$5, -34872(%rbp)
	movl	$5, -34876(%rbp)
	movl	$5, -34880(%rbp)
	movl	$5, -34884(%rbp)
	movl	$5, -34888(%rbp)
	movl	$5, -34892(%rbp)
	movl	$5, -34896(%rbp)
	movl	$5, -34900(%rbp)
	movl	$5, -34904(%rbp)
	movl	$5, -34908(%rbp)
	movl	$5, -34912(%rbp)
	movl	$5, -34916(%rbp)
	movl	$5, -34920(%rbp)
	movl	$5, -34924(%rbp)
	movl	$5, -34928(%rbp)
	movl	$5, -34932(%rbp)
	movl	$5, -34936(%rbp)
	movl	$5, -34940(%rbp)
	movl	$5, -34944(%rbp)
	movl	$5, -34948(%rbp)
	movl	$5, -34952(%rbp)
	movl	$5, -34956(%rbp)
	movl	$5, -34960(%rbp)
	movl	$5, -34964(%rbp)
	movl	$5, -34968(%rbp)
	movl	$5, -34972(%rbp)
	movl	$5, -34976(%rbp)
	movl	$5, -34980(%rbp)
	movl	$5, -34984(%rbp)
	movl	$5, -34988(%rbp)
	movl	$5, -34992(%rbp)
	movl	$5, -34996(%rbp)
	movl	$5, -35000(%rbp)
	movl	$5, -35004(%rbp)
	movl	$5, -35008(%rbp)
	movl	$5, -35012(%rbp)
	movl	$5, -35016(%rbp)
	movl	$5, -35020(%rbp)
	movl	$5, -35024(%rbp)
	movl	$5, -35028(%rbp)
	movl	$5, -35032(%rbp)
	movl	$5, -35036(%rbp)
	movl	$5, -35040(%rbp)
	movl	$5, -35044(%rbp)
	movl	$5, -35048(%rbp)
	movl	$5, -35052(%rbp)
	movl	$5, -35056(%rbp)
	movl	$5, -35060(%rbp)
	movl	$5, -35064(%rbp)
	movl	$5, -35068(%rbp)
	movl	$5, -35072(%rbp)
	movl	$5, -35076(%rbp)
	movl	$5, -35080(%rbp)
	movl	$5, -35084(%rbp)
	movl	$5, -35088(%rbp)
	movl	$5, -35092(%rbp)
	movl	$5, -35096(%rbp)
	movl	$5, -35100(%rbp)
	movl	$5, -35104(%rbp)
	movl	$5, -35108(%rbp)
	movl	$5, -35112(%rbp)
	movl	$5, -35116(%rbp)
	movl	$5, -35120(%rbp)
	movl	$5, -35124(%rbp)
	movl	$5, -35128(%rbp)
	movl	$5, -35132(%rbp)
	movl	$5, -35136(%rbp)
	movl	$5, -35140(%rbp)
	movl	$5, -35144(%rbp)
	movl	$5, -35148(%rbp)
	movl	$5, -35152(%rbp)
	movl	$5, -35156(%rbp)
	movl	$5, -35160(%rbp)
	movl	$5, -35164(%rbp)
	movl	$5, -35168(%rbp)
	movl	$5, -35172(%rbp)
	movl	$5, -35176(%rbp)
	movl	$5, -35180(%rbp)
	movl	$5, -35184(%rbp)
	movl	$5, -35188(%rbp)
	movl	$5, -35192(%rbp)
	movl	$5, -35196(%rbp)
	movl	$5, -35200(%rbp)
	movl	$5, -35204(%rbp)
	movl	$5, -35208(%rbp)
	movl	$5, -35212(%rbp)
	movl	$5, -35216(%rbp)
	movl	$5, -35220(%rbp)
	movl	$5, -35224(%rbp)
	movl	$5, -35228(%rbp)
	movl	$5, -35232(%rbp)
	movl	$5, -35236(%rbp)
	movl	$5, -35240(%rbp)
	movl	$5, -35244(%rbp)
	movl	$5, -35248(%rbp)
	movl	$5, -35252(%rbp)
	movl	$5, -35256(%rbp)
	movl	$5, -35260(%rbp)
	movl	$5, -35264(%rbp)
	movl	$5, -35268(%rbp)
	movl	$5, -35272(%rbp)
	movl	$5, -35276(%rbp)
	movl	$5, -35280(%rbp)
	movl	$5, -35284(%rbp)
	movl	$5, -35288(%rbp)
	movl	$5, -35292(%rbp)
	movl	$5, -35296(%rbp)
	movl	$5, -35300(%rbp)
	movl	$5, -35304(%rbp)
	movl	$5, -35308(%rbp)
	movl	$5, -35312(%rbp)
	movl	$5, -35316(%rbp)
	movl	$5, -35320(%rbp)
	movl	$5, -35324(%rbp)
	movl	$5, -35328(%rbp)
	movl	$5, -35332(%rbp)
	movl	$5, -35336(%rbp)
	movl	$5, -35340(%rbp)
	movl	$5, -35344(%rbp)
	movl	$5, -35348(%rbp)
	movl	$5, -35352(%rbp)
	movl	$5, -35356(%rbp)
	movl	$5, -35360(%rbp)
	movl	$5, -35364(%rbp)
	movl	$5, -35368(%rbp)
	movl	$5, -35372(%rbp)
	movl	$5, -35376(%rbp)
	movl	$5, -35380(%rbp)
	movl	$5, -35384(%rbp)
	movl	$5, -35388(%rbp)
	movl	$5, -35392(%rbp)
	movl	$5, -35396(%rbp)
	movl	$5, -35400(%rbp)
	movl	$5, -35404(%rbp)
	movl	$5, -35408(%rbp)
	movl	$5, -35412(%rbp)
	movl	$5, -35416(%rbp)
	movl	$5, -35420(%rbp)
	movl	$5, -35424(%rbp)
	movl	$5, -35428(%rbp)
	movl	$5, -35432(%rbp)
	movl	$5, -35436(%rbp)
	movl	$5, -35440(%rbp)
	movl	$5, -35444(%rbp)
	movl	$5, -35448(%rbp)
	movl	$5, -35452(%rbp)
	movl	$5, -35456(%rbp)
	movl	$5, -35460(%rbp)
	movl	$5, -35464(%rbp)
	movl	$5, -35468(%rbp)
	movl	$5, -35472(%rbp)
	movl	$5, -35476(%rbp)
	movl	$5, -35480(%rbp)
	movl	$5, -35484(%rbp)
	movl	$5, -35488(%rbp)
	movl	$5, -35492(%rbp)
	movl	$5, -35496(%rbp)
	movl	$5, -35500(%rbp)
	movl	$5, -35504(%rbp)
	movl	$5, -35508(%rbp)
	movl	$5, -35512(%rbp)
	movl	$5, -35516(%rbp)
	movl	$5, -35520(%rbp)
	movl	$5, -35524(%rbp)
	movl	$5, -35528(%rbp)
	movl	$5, -35532(%rbp)
	movl	$5, -35536(%rbp)
	movl	$5, -35540(%rbp)
	movl	$5, -35544(%rbp)
	movl	$5, -35548(%rbp)
	movl	$5, -35552(%rbp)
	movl	$5, -35556(%rbp)
	movl	$5, -35560(%rbp)
	movl	$5, -35564(%rbp)
	movl	$5, -35568(%rbp)
	movl	$5, -35572(%rbp)
	movl	$5, -35576(%rbp)
	movl	$5, -35580(%rbp)
	movl	$5, -35584(%rbp)
	movl	$5, -35588(%rbp)
	movl	$5, -35592(%rbp)
	movl	$5, -35596(%rbp)
	movl	$5, -35600(%rbp)
	movl	$5, -35604(%rbp)
	movl	$5, -35608(%rbp)
	movl	$5, -35612(%rbp)
	movl	$5, -35616(%rbp)
	movl	$5, -35620(%rbp)
	movl	$5, -35624(%rbp)
	movl	$5, -35628(%rbp)
	movl	$5, -35632(%rbp)
	movl	$5, -35636(%rbp)
	movl	$5, -35640(%rbp)
	movl	$5, -35644(%rbp)
	movl	$5, -35648(%rbp)
	movl	$5, -35652(%rbp)
	movl	$5, -35656(%rbp)
	movl	$5, -35660(%rbp)
	movl	$5, -35664(%rbp)
	movl	$5, -35668(%rbp)
	movl	$5, -35672(%rbp)
	movl	$5, -35676(%rbp)
	movl	$5, -35680(%rbp)
	movl	$5, -35684(%rbp)
	movl	$5, -35688(%rbp)
	movl	$5, -35692(%rbp)
	movl	$5, -35696(%rbp)
	movl	$5, -35700(%rbp)
	movl	$5, -35704(%rbp)
	movl	$5, -35708(%rbp)
	movl	$5, -35712(%rbp)
	movl	$5, -35716(%rbp)
	movl	$5, -35720(%rbp)
	movl	$5, -35724(%rbp)
	movl	$5, -35728(%rbp)
	movl	$5, -35732(%rbp)
	movl	$5, -35736(%rbp)
	movl	$5, -35740(%rbp)
	movl	$5, -35744(%rbp)
	movl	$5, -35748(%rbp)
	movl	$5, -35752(%rbp)
	movl	$5, -35756(%rbp)
	movl	$5, -35760(%rbp)
	movl	$5, -35764(%rbp)
	movl	$5, -35768(%rbp)
	movl	$5, -35772(%rbp)
	movl	$5, -35776(%rbp)
	movl	$5, -35780(%rbp)
	movl	$5, -35784(%rbp)
	movl	$5, -35788(%rbp)
	movl	$5, -35792(%rbp)
	movl	$5, -35796(%rbp)
	movl	$5, -35800(%rbp)
	movl	$5, -35804(%rbp)
	movl	$5, -35808(%rbp)
	movl	$5, -35812(%rbp)
	movl	$5, -35816(%rbp)
	movl	$5, -35820(%rbp)
	movl	$5, -35824(%rbp)
	movl	$5, -35828(%rbp)
	movl	$5, -35832(%rbp)
	movl	$5, -35836(%rbp)
	movl	$5, -35840(%rbp)
	movl	$5, -35844(%rbp)
	movl	$5, -35848(%rbp)
	movl	$5, -35852(%rbp)
	movl	$5, -35856(%rbp)
	movl	$5, -35860(%rbp)
	movl	$5, -35864(%rbp)
	movl	$5, -35868(%rbp)
	movl	$5, -35872(%rbp)
	movl	$5, -35876(%rbp)
	movl	$5, -35880(%rbp)
	movl	$5, -35884(%rbp)
	movl	$5, -35888(%rbp)
	movl	$5, -35892(%rbp)
	movl	$5, -35896(%rbp)
	movl	$5, -35900(%rbp)
	movl	$5, -35904(%rbp)
	movl	$5, -35908(%rbp)
	movl	$5, -35912(%rbp)
	movl	$5, -35916(%rbp)
	movl	$5, -35920(%rbp)
	movl	$5, -35924(%rbp)
	movl	$5, -35928(%rbp)
	movl	$5, -35932(%rbp)
	movl	$5, -35936(%rbp)
	movl	$5, -35940(%rbp)
	movl	$5, -35944(%rbp)
	movl	$5, -35948(%rbp)
	movl	$5, -35952(%rbp)
	movl	$5, -35956(%rbp)
	movl	$5, -35960(%rbp)
	movl	$5, -35964(%rbp)
	movl	$5, -35968(%rbp)
	movl	$5, -35972(%rbp)
	movl	$5, -35976(%rbp)
	movl	$5, -35980(%rbp)
	movl	$5, -35984(%rbp)
	movl	$5, -35988(%rbp)
	movl	$5, -35992(%rbp)
	movl	$5, -35996(%rbp)
	movl	$5, -36000(%rbp)
	movl	$5, -36004(%rbp)
	movl	$5, -36008(%rbp)
	movl	$5, -36012(%rbp)
	movl	$5, -36016(%rbp)
	movl	$5, -36020(%rbp)
	movl	$5, -36024(%rbp)
	movl	$5, -36028(%rbp)
	movl	$5, -36032(%rbp)
	movl	$5, -36036(%rbp)
	movl	$5, -36040(%rbp)
	movl	$5, -36044(%rbp)
	movl	$5, -36048(%rbp)
	movl	$5, -36052(%rbp)
	movl	$5, -36056(%rbp)
	movl	$5, -36060(%rbp)
	movl	$5, -36064(%rbp)
	movl	$5, -36068(%rbp)
	movl	$5, -36072(%rbp)
	movl	$5, -36076(%rbp)
	movl	$5, -36080(%rbp)
	movl	$5, -36084(%rbp)
	movl	$5, -36088(%rbp)
	movl	$5, -36092(%rbp)
	movl	$5, -36096(%rbp)
	movl	$5, -36100(%rbp)
	movl	$5, -36104(%rbp)
	movl	$5, -36108(%rbp)
	movl	$5, -36112(%rbp)
	movl	$5, -36116(%rbp)
	movl	$5, -36120(%rbp)
	movl	$5, -36124(%rbp)
	movl	$5, -36128(%rbp)
	movl	$5, -36132(%rbp)
	movl	$5, -36136(%rbp)
	movl	$5, -36140(%rbp)
	movl	$5, -36144(%rbp)
	movl	$5, -36148(%rbp)
	movl	$5, -36152(%rbp)
	movl	$5, -36156(%rbp)
	movl	$5, -36160(%rbp)
	movl	$5, -36164(%rbp)
	movl	$5, -36168(%rbp)
	movl	$5, -36172(%rbp)
	movl	$5, -36176(%rbp)
	movl	$5, -36180(%rbp)
	movl	$5, -36184(%rbp)
	movl	$5, -36188(%rbp)
	movl	$5, -36192(%rbp)
	movl	$5, -36196(%rbp)
	movl	$5, -36200(%rbp)
	movl	$5, -36204(%rbp)
	movl	$5, -36208(%rbp)
	movl	$5, -36212(%rbp)
	movl	$5, -36216(%rbp)
	movl	$5, -36220(%rbp)
	movl	$5, -36224(%rbp)
	movl	$5, -36228(%rbp)
	movl	$5, -36232(%rbp)
	movl	$5, -36236(%rbp)
	movl	$5, -36240(%rbp)
	movl	$5, -36244(%rbp)
	movl	$5, -36248(%rbp)
	movl	$5, -36252(%rbp)
	movl	$5, -36256(%rbp)
	movl	$5, -36260(%rbp)
	movl	$5, -36264(%rbp)
	movl	$5, -36268(%rbp)
	movl	$5, -36272(%rbp)
	movl	$5, -36276(%rbp)
	movl	$5, -36280(%rbp)
	movl	$5, -36284(%rbp)
	movl	$5, -36288(%rbp)
	movl	$5, -36292(%rbp)
	movl	$5, -36296(%rbp)
	movl	$5, -36300(%rbp)
	movl	$5, -36304(%rbp)
	movl	$5, -36308(%rbp)
	movl	$5, -36312(%rbp)
	movl	$5, -36316(%rbp)
	movl	$5, -36320(%rbp)
	movl	$5, -36324(%rbp)
	movl	$5, -36328(%rbp)
	movl	$5, -36332(%rbp)
	movl	$5, -36336(%rbp)
	movl	$5, -36340(%rbp)
	movl	$5, -36344(%rbp)
	movl	$5, -36348(%rbp)
	movl	$5, -36352(%rbp)
	movl	$5, -36356(%rbp)
	movl	$5, -36360(%rbp)
	movl	$5, -36364(%rbp)
	movl	$5, -36368(%rbp)
	movl	$5, -36372(%rbp)
	movl	$5, -36376(%rbp)
	movl	$5, -36380(%rbp)
	movl	$5, -36384(%rbp)
	movl	$5, -36388(%rbp)
	movl	$5, -36392(%rbp)
	movl	$5, -36396(%rbp)
	movl	$5, -36400(%rbp)
	movl	$5, -36404(%rbp)
	movl	$5, -36408(%rbp)
	movl	$5, -36412(%rbp)
	movl	$5, -36416(%rbp)
	movl	$5, -36420(%rbp)
	movl	$5, -36424(%rbp)
	movl	$5, -36428(%rbp)
	movl	$5, -36432(%rbp)
	movl	$5, -36436(%rbp)
	movl	$5, -36440(%rbp)
	movl	$5, -36444(%rbp)
	movl	$5, -36448(%rbp)
	movl	$5, -36452(%rbp)
	movl	$5, -36456(%rbp)
	movl	$5, -36460(%rbp)
	movl	$5, -36464(%rbp)
	movl	$5, -36468(%rbp)
	movl	$5, -36472(%rbp)
	movl	$5, -36476(%rbp)
	movl	$5, -36480(%rbp)
	movl	$5, -36484(%rbp)
	movl	$5, -36488(%rbp)
	movl	$5, -36492(%rbp)
	movl	$5, -36496(%rbp)
	movl	$5, -36500(%rbp)
	movl	$5, -36504(%rbp)
	movl	$5, -36508(%rbp)
	movl	$5, -36512(%rbp)
	movl	$5, -36516(%rbp)
	movl	$5, -36520(%rbp)
	movl	$5, -36524(%rbp)
	movl	$5, -36528(%rbp)
	movl	$5, -36532(%rbp)
	movl	$5, -36536(%rbp)
	movl	$5, -36540(%rbp)
	movl	$5, -36544(%rbp)
	movl	$5, -36548(%rbp)
	movl	$5, -36552(%rbp)
	movl	$5, -36556(%rbp)
	movl	$5, -36560(%rbp)
	movl	$5, -36564(%rbp)
	movl	$5, -36568(%rbp)
	movl	$5, -36572(%rbp)
	movl	$5, -36576(%rbp)
	movl	$5, -36580(%rbp)
	movl	$5, -36584(%rbp)
	movl	$5, -36588(%rbp)
	movl	$5, -36592(%rbp)
	movl	$5, -36596(%rbp)
	movl	$5, -36600(%rbp)
	movl	$5, -36604(%rbp)
	movl	$5, -36608(%rbp)
	movl	$5, -36612(%rbp)
	movl	$5, -36616(%rbp)
	movl	$5, -36620(%rbp)
	movl	$5, -36624(%rbp)
	movl	$5, -36628(%rbp)
	movl	$5, -36632(%rbp)
	movl	$5, -36636(%rbp)
	movl	$5, -36640(%rbp)
	movl	$5, -36644(%rbp)
	movl	$5, -36648(%rbp)
	movl	$5, -36652(%rbp)
	movl	$5, -36656(%rbp)
	movl	$5, -36660(%rbp)
	movl	$5, -36664(%rbp)
	movl	$5, -36668(%rbp)
	movl	$5, -36672(%rbp)
	movl	$5, -36676(%rbp)
	movl	$5, -36680(%rbp)
	movl	$5, -36684(%rbp)
	movl	$5, -36688(%rbp)
	movl	$5, -36692(%rbp)
	movl	$5, -36696(%rbp)
	movl	$5, -36700(%rbp)
	movl	$5, -36704(%rbp)
	movl	$5, -36708(%rbp)
	movl	$5, -36712(%rbp)
	movl	$5, -36716(%rbp)
	movl	$5, -36720(%rbp)
	movl	$5, -36724(%rbp)
	movl	$5, -36728(%rbp)
	movl	$5, -36732(%rbp)
	movl	$5, -36736(%rbp)
	movl	$5, -36740(%rbp)
	movl	$5, -36744(%rbp)
	movl	$5, -36748(%rbp)
	movl	$5, -36752(%rbp)
	movl	$5, -36756(%rbp)
	movl	$5, -36760(%rbp)
	movl	$5, -36764(%rbp)
	movl	$5, -36768(%rbp)
	movl	$5, -36772(%rbp)
	movl	$5, -36776(%rbp)
	movl	$5, -36780(%rbp)
	movl	$5, -36784(%rbp)
	movl	$5, -36788(%rbp)
	movl	$5, -36792(%rbp)
	movl	$5, -36796(%rbp)
	movl	$5, -36800(%rbp)
	movl	$5, -36804(%rbp)
	movl	$5, -36808(%rbp)
	movl	$5, -36812(%rbp)
	movl	$5, -36816(%rbp)
	movl	$5, -36820(%rbp)
	movl	$5, -36824(%rbp)
	movl	$5, -36828(%rbp)
	movl	$5, -36832(%rbp)
	movl	$5, -36836(%rbp)
	movl	$5, -36840(%rbp)
	movl	$5, -36844(%rbp)
	movl	$5, -36848(%rbp)
	movl	$5, -36852(%rbp)
	movl	$5, -36856(%rbp)
	movl	$5, -36860(%rbp)
	movl	$5, -36864(%rbp)
	movl	$5, -36868(%rbp)
	movl	$5, -36872(%rbp)
	movl	$5, -36876(%rbp)
	movl	$5, -36880(%rbp)
	movl	$5, -36884(%rbp)
	movl	$5, -36888(%rbp)
	movl	$5, -36892(%rbp)
	movl	$5, -36896(%rbp)
	movl	$5, -36900(%rbp)
	movl	$5, -36904(%rbp)
	movl	$5, -36908(%rbp)
	movl	$5, -36912(%rbp)
	movl	$5, -36916(%rbp)
	movl	$5, -36920(%rbp)
	movl	$5, -36924(%rbp)
	movl	$5, -36928(%rbp)
	movl	$5, -36932(%rbp)
	movl	$5, -36936(%rbp)
	movl	$5, -36940(%rbp)
	movl	$5, -36944(%rbp)
	movl	$5, -36948(%rbp)
	movl	$5, -36952(%rbp)
	movl	$5, -36956(%rbp)
	movl	$5, -36960(%rbp)
	movl	$5, -36964(%rbp)
	movl	$5, -36968(%rbp)
	movl	$5, -36972(%rbp)
	movl	$5, -36976(%rbp)
	movl	$5, -36980(%rbp)
	movl	$5, -36984(%rbp)
	movl	$5, -36988(%rbp)
	movl	$5, -36992(%rbp)
	movl	$5, -36996(%rbp)
	movl	$5, -37000(%rbp)
	movl	$5, -37004(%rbp)
	movl	$5, -37008(%rbp)
	movl	$5, -37012(%rbp)
	movl	$5, -37016(%rbp)
	movl	$5, -37020(%rbp)
	movl	$5, -37024(%rbp)
	movl	$5, -37028(%rbp)
	movl	$5, -37032(%rbp)
	movl	$5, -37036(%rbp)
	movl	$5, -37040(%rbp)
	movl	$5, -37044(%rbp)
	movl	$5, -37048(%rbp)
	movl	$5, -37052(%rbp)
	movl	$5, -37056(%rbp)
	movl	$5, -37060(%rbp)
	movl	$5, -37064(%rbp)
	movl	$5, -37068(%rbp)
	movl	$5, -37072(%rbp)
	movl	$5, -37076(%rbp)
	movl	$5, -37080(%rbp)
	movl	$5, -37084(%rbp)
	movl	$5, -37088(%rbp)
	movl	$5, -37092(%rbp)
	movl	$5, -37096(%rbp)
	movl	$5, -37100(%rbp)
	movl	$5, -37104(%rbp)
	movl	$5, -37108(%rbp)
	movl	$5, -37112(%rbp)
	movl	$5, -37116(%rbp)
	movl	$5, -37120(%rbp)
	movl	$5, -37124(%rbp)
	movl	$5, -37128(%rbp)
	movl	$5, -37132(%rbp)
	movl	$5, -37136(%rbp)
	movl	$5, -37140(%rbp)
	movl	$5, -37144(%rbp)
	movl	$5, -37148(%rbp)
	movl	$5, -37152(%rbp)
	movl	$5, -37156(%rbp)
	movl	$5, -37160(%rbp)
	movl	$5, -37164(%rbp)
	movl	$5, -37168(%rbp)
	movl	$5, -37172(%rbp)
	movl	$5, -37176(%rbp)
	movl	$5, -37180(%rbp)
	movl	$5, -37184(%rbp)
	movl	$5, -37188(%rbp)
	movl	$5, -37192(%rbp)
	movl	$5, -37196(%rbp)
	movl	$5, -37200(%rbp)
	movl	$5, -37204(%rbp)
	movl	$5, -37208(%rbp)
	movl	$5, -37212(%rbp)
	movl	$5, -37216(%rbp)
	movl	$5, -37220(%rbp)
	movl	$5, -37224(%rbp)
	movl	$5, -37228(%rbp)
	movl	$5, -37232(%rbp)
	movl	$5, -37236(%rbp)
	movl	$5, -37240(%rbp)
	movl	$5, -37244(%rbp)
	movl	$5, -37248(%rbp)
	movl	$5, -37252(%rbp)
	movl	$5, -37256(%rbp)
	movl	$5, -37260(%rbp)
	movl	$5, -37264(%rbp)
	movl	$5, -37268(%rbp)
	movl	$5, -37272(%rbp)
	movl	$5, -37276(%rbp)
	movl	$5, -37280(%rbp)
	movl	$5, -37284(%rbp)
	movl	$5, -37288(%rbp)
	movl	$5, -37292(%rbp)
	movl	$5, -37296(%rbp)
	movl	$5, -37300(%rbp)
	movl	$5, -37304(%rbp)
	movl	$5, -37308(%rbp)
	movl	$5, -37312(%rbp)
	movl	$5, -37316(%rbp)
	movl	$5, -37320(%rbp)
	movl	$5, -37324(%rbp)
	movl	$5, -37328(%rbp)
	movl	$5, -37332(%rbp)
	movl	$5, -37336(%rbp)
	movl	$5, -37340(%rbp)
	movl	$5, -37344(%rbp)
	movl	$5, -37348(%rbp)
	movl	$5, -37352(%rbp)
	movl	$5, -37356(%rbp)
	movl	$5, -37360(%rbp)
	movl	$5, -37364(%rbp)
	movl	$5, -37368(%rbp)
	movl	$5, -37372(%rbp)
	movl	$5, -37376(%rbp)
	movl	$5, -37380(%rbp)
	movl	$5, -37384(%rbp)
	movl	$5, -37388(%rbp)
	movl	$5, -37392(%rbp)
	movl	$5, -37396(%rbp)
	movl	$5, -37400(%rbp)
	movl	$5, -37404(%rbp)
	movl	$5, -37408(%rbp)
	movl	$5, -37412(%rbp)
	movl	$5, -37416(%rbp)
	movl	$5, -37420(%rbp)
	movl	$5, -37424(%rbp)
	movl	$5, -37428(%rbp)
	movl	$5, -37432(%rbp)
	movl	$5, -37436(%rbp)
	movl	$5, -37440(%rbp)
	movl	$5, -37444(%rbp)
	movl	$5, -37448(%rbp)
	movl	$5, -37452(%rbp)
	movl	$5, -37456(%rbp)
	movl	$5, -37460(%rbp)
	movl	$5, -37464(%rbp)
	movl	$5, -37468(%rbp)
	movl	$5, -37472(%rbp)
	movl	$5, -37476(%rbp)
	movl	$5, -37480(%rbp)
	movl	$5, -37484(%rbp)
	movl	$5, -37488(%rbp)
	movl	$5, -37492(%rbp)
	movl	$5, -37496(%rbp)
	movl	$5, -37500(%rbp)
	movl	$5, -37504(%rbp)
	movl	$5, -37508(%rbp)
	movl	$5, -37512(%rbp)
	movl	$5, -37516(%rbp)
	movl	$5, -37520(%rbp)
	movl	$5, -37524(%rbp)
	movl	$5, -37528(%rbp)
	movl	$5, -37532(%rbp)
	movl	$5, -37536(%rbp)
	movl	$5, -37540(%rbp)
	movl	$5, -37544(%rbp)
	movl	$5, -37548(%rbp)
	movl	$5, -37552(%rbp)
	movl	$5, -37556(%rbp)
	movl	$5, -37560(%rbp)
	movl	$5, -37564(%rbp)
	movl	$5, -37568(%rbp)
	movl	$5, -37572(%rbp)
	movl	$5, -37576(%rbp)
	movl	$5, -37580(%rbp)
	movl	$5, -37584(%rbp)
	movl	$5, -37588(%rbp)
	movl	$5, -37592(%rbp)
	movl	$5, -37596(%rbp)
	movl	$5, -37600(%rbp)
	movl	$5, -37604(%rbp)
	movl	$5, -37608(%rbp)
	movl	$5, -37612(%rbp)
	movl	$5, -37616(%rbp)
	movl	$5, -37620(%rbp)
	movl	$5, -37624(%rbp)
	movl	$5, -37628(%rbp)
	movl	$5, -37632(%rbp)
	movl	$5, -37636(%rbp)
	movl	$5, -37640(%rbp)
	movl	$5, -37644(%rbp)
	movl	$5, -37648(%rbp)
	movl	$5, -37652(%rbp)
	movl	$5, -37656(%rbp)
	movl	$5, -37660(%rbp)
	movl	$5, -37664(%rbp)
	movl	$5, -37668(%rbp)
	movl	$5, -37672(%rbp)
	movl	$5, -37676(%rbp)
	movl	$5, -37680(%rbp)
	movl	$5, -37684(%rbp)
	movl	$5, -37688(%rbp)
	movl	$5, -37692(%rbp)
	movl	$5, -37696(%rbp)
	movl	$5, -37700(%rbp)
	movl	$5, -37704(%rbp)
	movl	$5, -37708(%rbp)
	movl	$5, -37712(%rbp)
	movl	$5, -37716(%rbp)
	movl	$5, -37720(%rbp)
	movl	$5, -37724(%rbp)
	movl	$5, -37728(%rbp)
	movl	$5, -37732(%rbp)
	movl	$5, -37736(%rbp)
	movl	$5, -37740(%rbp)
	movl	$5, -37744(%rbp)
	movl	$5, -37748(%rbp)
	movl	$5, -37752(%rbp)
	movl	$5, -37756(%rbp)
	movl	$5, -37760(%rbp)
	movl	$5, -37764(%rbp)
	movl	$5, -37768(%rbp)
	movl	$5, -37772(%rbp)
	movl	$5, -37776(%rbp)
	movl	$5, -37780(%rbp)
	movl	$5, -37784(%rbp)
	movl	$5, -37788(%rbp)
	movl	$5, -37792(%rbp)
	movl	$5, -37796(%rbp)
	movl	$5, -37800(%rbp)
	movl	$5, -37804(%rbp)
	movl	$5, -37808(%rbp)
	movl	$5, -37812(%rbp)
	movl	$5, -37816(%rbp)
	movl	$5, -37820(%rbp)
	movl	$5, -37824(%rbp)
	movl	$5, -37828(%rbp)
	movl	$5, -37832(%rbp)
	movl	$5, -37836(%rbp)
	movl	$5, -37840(%rbp)
	movl	$5, -37844(%rbp)
	movl	$5, -37848(%rbp)
	movl	$5, -37852(%rbp)
	movl	$5, -37856(%rbp)
	movl	$5, -37860(%rbp)
	movl	$5, -37864(%rbp)
	movl	$5, -37868(%rbp)
	movl	$5, -37872(%rbp)
	movl	$5, -37876(%rbp)
	movl	$5, -37880(%rbp)
	movl	$5, -37884(%rbp)
	movl	$5, -37888(%rbp)
	movl	$5, -37892(%rbp)
	movl	$5, -37896(%rbp)
	movl	$5, -37900(%rbp)
	movl	$5, -37904(%rbp)
	movl	$5, -37908(%rbp)
	movl	$5, -37912(%rbp)
	movl	$5, -37916(%rbp)
	movl	$5, -37920(%rbp)
	movl	$5, -37924(%rbp)
	movl	$5, -37928(%rbp)
	movl	$5, -37932(%rbp)
	movl	$5, -37936(%rbp)
	movl	$5, -37940(%rbp)
	movl	$5, -37944(%rbp)
	movl	$5, -37948(%rbp)
	movl	$5, -37952(%rbp)
	movl	$5, -37956(%rbp)
	movl	$5, -37960(%rbp)
	movl	$5, -37964(%rbp)
	movl	$5, -37968(%rbp)
	movl	$5, -37972(%rbp)
	movl	$5, -37976(%rbp)
	movl	$5, -37980(%rbp)
	movl	$5, -37984(%rbp)
	movl	$5, -37988(%rbp)
	movl	$5, -37992(%rbp)
	movl	$5, -37996(%rbp)
	movl	$5, -38000(%rbp)
	movl	$5, -38004(%rbp)
	movl	$5, -38008(%rbp)
	movl	$5, -38012(%rbp)
	movl	$5, -38016(%rbp)
	movl	$5, -38020(%rbp)
	movl	$5, -38024(%rbp)
	movl	$5, -38028(%rbp)
	movl	$5, -38032(%rbp)
	movl	$5, -38036(%rbp)
	movl	$5, -38040(%rbp)
	movl	$5, -38044(%rbp)
	movl	$5, -38048(%rbp)
	movl	$5, -38052(%rbp)
	movl	$5, -38056(%rbp)
	movl	$5, -38060(%rbp)
	movl	$5, -38064(%rbp)
	movl	$5, -38068(%rbp)
	movl	$5, -38072(%rbp)
	movl	$5, -38076(%rbp)
	movl	$5, -38080(%rbp)
	movl	$5, -38084(%rbp)
	movl	$5, -38088(%rbp)
	movl	$5, -38092(%rbp)
	movl	$5, -38096(%rbp)
	movl	$5, -38100(%rbp)
	movl	$5, -38104(%rbp)
	movl	$5, -38108(%rbp)
	movl	$5, -38112(%rbp)
	movl	$5, -38116(%rbp)
	movl	$5, -38120(%rbp)
	movl	$5, -38124(%rbp)
	movl	$5, -38128(%rbp)
	movl	$5, -38132(%rbp)
	movl	$5, -38136(%rbp)
	movl	$5, -38140(%rbp)
	movl	$5, -38144(%rbp)
	movl	$5, -38148(%rbp)
	movl	$5, -38152(%rbp)
	movl	$5, -38156(%rbp)
	movl	$5, -38160(%rbp)
	movl	$5, -38164(%rbp)
	movl	$5, -38168(%rbp)
	movl	$5, -38172(%rbp)
	movl	$5, -38176(%rbp)
	movl	$5, -38180(%rbp)
	movl	$5, -38184(%rbp)
	movl	$5, -38188(%rbp)
	movl	$5, -38192(%rbp)
	movl	$5, -38196(%rbp)
	movl	$5, -38200(%rbp)
	movl	$5, -38204(%rbp)
	movl	$5, -38208(%rbp)
	movl	$5, -38212(%rbp)
	movl	$5, -38216(%rbp)
	movl	$5, -38220(%rbp)
	movl	$5, -38224(%rbp)
	movl	$5, -38228(%rbp)
	movl	$5, -38232(%rbp)
	movl	$5, -38236(%rbp)
	movl	$5, -38240(%rbp)
	movl	$5, -38244(%rbp)
	movl	$5, -38248(%rbp)
	movl	$5, -38252(%rbp)
	movl	$5, -38256(%rbp)
	movl	$5, -38260(%rbp)
	movl	$5, -38264(%rbp)
	movl	$5, -38268(%rbp)
	movl	$5, -38272(%rbp)
	movl	$5, -38276(%rbp)
	movl	$5, -38280(%rbp)
	movl	$5, -38284(%rbp)
	movl	$5, -38288(%rbp)
	movl	$5, -38292(%rbp)
	movl	$5, -38296(%rbp)
	movl	$5, -38300(%rbp)
	movl	$5, -38304(%rbp)
	movl	$5, -38308(%rbp)
	movl	$5, -38312(%rbp)
	movl	$5, -38316(%rbp)
	movl	$5, -38320(%rbp)
	movl	$5, -38324(%rbp)
	movl	$5, -38328(%rbp)
	movl	$5, -38332(%rbp)
	movl	$5, -38336(%rbp)
	movl	$5, -38340(%rbp)
	movl	$5, -38344(%rbp)
	movl	$5, -38348(%rbp)
	movl	$5, -38352(%rbp)
	movl	$5, -38356(%rbp)
	movl	$5, -38360(%rbp)
	movl	$5, -38364(%rbp)
	movl	$5, -38368(%rbp)
	movl	$5, -38372(%rbp)
	movl	$5, -38376(%rbp)
	movl	$5, -38380(%rbp)
	movl	$5, -38384(%rbp)
	movl	$5, -38388(%rbp)
	movl	$5, -38392(%rbp)
	movl	$5, -38396(%rbp)
	movl	$5, -38400(%rbp)
	movl	$5, -38404(%rbp)
	movl	$5, -38408(%rbp)
	movl	$5, -38412(%rbp)
	movl	$5, -38416(%rbp)
	movl	$5, -38420(%rbp)
	movl	$5, -38424(%rbp)
	movl	$5, -38428(%rbp)
	movl	$5, -38432(%rbp)
	movl	$5, -38436(%rbp)
	movl	$5, -38440(%rbp)
	movl	$5, -38444(%rbp)
	movl	$5, -38448(%rbp)
	movl	$5, -38452(%rbp)
	movl	$5, -38456(%rbp)
	movl	$5, -38460(%rbp)
	movl	$5, -38464(%rbp)
	movl	$5, -38468(%rbp)
	movl	$5, -38472(%rbp)
	movl	$5, -38476(%rbp)
	movl	$5, -38480(%rbp)
	movl	$5, -38484(%rbp)
	movl	$5, -38488(%rbp)
	movl	$5, -38492(%rbp)
	movl	$5, -38496(%rbp)
	movl	$5, -38500(%rbp)
	movl	$5, -38504(%rbp)
	movl	$5, -38508(%rbp)
	movl	$5, -38512(%rbp)
	movl	$5, -38516(%rbp)
	movl	$5, -38520(%rbp)
	movl	$5, -38524(%rbp)
	movl	$5, -38528(%rbp)
	movl	$5, -38532(%rbp)
	movl	$5, -38536(%rbp)
	movl	$5, -38540(%rbp)
	movl	$5, -38544(%rbp)
	movl	$5, -38548(%rbp)
	movl	$5, -38552(%rbp)
	movl	$5, -38556(%rbp)
	movl	$5, -38560(%rbp)
	movl	$5, -38564(%rbp)
	movl	$5, -38568(%rbp)
	movl	$5, -38572(%rbp)
	movl	$5, -38576(%rbp)
	movl	$5, -38580(%rbp)
	movl	$5, -38584(%rbp)
	movl	$5, -38588(%rbp)
	movl	$5, -38592(%rbp)
	movl	$5, -38596(%rbp)
	movl	$5, -38600(%rbp)
	movl	$5, -38604(%rbp)
	movl	$5, -38608(%rbp)
	movl	$5, -38612(%rbp)
	movl	$5, -38616(%rbp)
	movl	$5, -38620(%rbp)
	movl	$5, -38624(%rbp)
	movl	$5, -38628(%rbp)
	movl	$5, -38632(%rbp)
	movl	$5, -38636(%rbp)
	movl	$5, -38640(%rbp)
	movl	$5, -38644(%rbp)
	movl	$5, -38648(%rbp)
	movl	$5, -38652(%rbp)
	movl	$5, -38656(%rbp)
	movl	$5, -38660(%rbp)
	movl	$5, -38664(%rbp)
	movl	$5, -38668(%rbp)
	movl	$5, -38672(%rbp)
	movl	$5, -38676(%rbp)
	movl	$5, -38680(%rbp)
	movl	$5, -38684(%rbp)
	movl	$5, -38688(%rbp)
	movl	$5, -38692(%rbp)
	movl	$5, -38696(%rbp)
	movl	$5, -38700(%rbp)
	movl	$5, -38704(%rbp)
	movl	$5, -38708(%rbp)
	movl	$5, -38712(%rbp)
	movl	$5, -38716(%rbp)
	movl	$5, -38720(%rbp)
	movl	$5, -38724(%rbp)
	movl	$5, -38728(%rbp)
	movl	$5, -38732(%rbp)
	movl	$5, -38736(%rbp)
	movl	$5, -38740(%rbp)
	movl	$5, -38744(%rbp)
	movl	$5, -38748(%rbp)
	movl	$5, -38752(%rbp)
	movl	$5, -38756(%rbp)
	movl	$5, -38760(%rbp)
	movl	$5, -38764(%rbp)
	movl	$5, -38768(%rbp)
	movl	$5, -38772(%rbp)
	movl	$5, -38776(%rbp)
	movl	$5, -38780(%rbp)
	movl	$5, -38784(%rbp)
	movl	$5, -38788(%rbp)
	movl	$5, -38792(%rbp)
	movl	$5, -38796(%rbp)
	movl	$5, -38800(%rbp)
	movl	$5, -38804(%rbp)
	movl	$5, -38808(%rbp)
	movl	$5, -38812(%rbp)
	movl	$5, -38816(%rbp)
	movl	$5, -38820(%rbp)
	movl	$5, -38824(%rbp)
	movl	$5, -38828(%rbp)
	movl	$5, -38832(%rbp)
	movl	$5, -38836(%rbp)
	movl	$5, -38840(%rbp)
	movl	$5, -38844(%rbp)
	movl	$5, -38848(%rbp)
	movl	$5, -38852(%rbp)
	movl	$5, -38856(%rbp)
	movl	$5, -38860(%rbp)
	movl	$5, -38864(%rbp)
	movl	$5, -38868(%rbp)
	movl	$5, -38872(%rbp)
	movl	$5, -38876(%rbp)
	movl	$5, -38880(%rbp)
	movl	$5, -38884(%rbp)
	movl	$5, -38888(%rbp)
	movl	$5, -38892(%rbp)
	movl	$5, -38896(%rbp)
	movl	$5, -38900(%rbp)
	movl	$5, -38904(%rbp)
	movl	$5, -38908(%rbp)
	movl	$5, -38912(%rbp)
	movl	$5, -38916(%rbp)
	movl	$5, -38920(%rbp)
	movl	$5, -38924(%rbp)
	movl	$5, -38928(%rbp)
	movl	$5, -38932(%rbp)
	movl	$5, -38936(%rbp)
	movl	$5, -38940(%rbp)
	movl	$5, -38944(%rbp)
	movl	$5, -38948(%rbp)
	movl	$5, -38952(%rbp)
	movl	$5, -38956(%rbp)
	movl	$5, -38960(%rbp)
	movl	$5, -38964(%rbp)
	movl	$5, -38968(%rbp)
	movl	$5, -38972(%rbp)
	movl	$5, -38976(%rbp)
	movl	$5, -38980(%rbp)
	movl	$5, -38984(%rbp)
	movl	$5, -38988(%rbp)
	movl	$5, -38992(%rbp)
	movl	$5, -38996(%rbp)
	movl	$5, -39000(%rbp)
	movl	$5, -39004(%rbp)
	movl	$5, -39008(%rbp)
	movl	$5, -39012(%rbp)
	movl	$5, -39016(%rbp)
	movl	$5, -39020(%rbp)
	movl	$5, -39024(%rbp)
	movl	$5, -39028(%rbp)
	movl	$5, -39032(%rbp)
	movl	$5, -39036(%rbp)
	movl	$5, -39040(%rbp)
	movl	$5, -39044(%rbp)
	movl	$5, -39048(%rbp)
	movl	$5, -39052(%rbp)
	movl	$5, -39056(%rbp)
	movl	$5, -39060(%rbp)
	movl	$5, -39064(%rbp)
	movl	$5, -39068(%rbp)
	movl	$5, -39072(%rbp)
	movl	$5, -39076(%rbp)
	movl	$5, -39080(%rbp)
	movl	$5, -39084(%rbp)
	movl	$5, -39088(%rbp)
	movl	$5, -39092(%rbp)
	movl	$5, -39096(%rbp)
	movl	$5, -39100(%rbp)
	movl	$5, -39104(%rbp)
	movl	$5, -39108(%rbp)
	movl	$5, -39112(%rbp)
	movl	$5, -39116(%rbp)
	movl	$5, -39120(%rbp)
	movl	$5, -39124(%rbp)
	movl	$5, -39128(%rbp)
	movl	$5, -39132(%rbp)
	movl	$5, -39136(%rbp)
	movl	$5, -39140(%rbp)
	movl	$5, -39144(%rbp)
	movl	$5, -39148(%rbp)
	movl	$5, -39152(%rbp)
	movl	$5, -39156(%rbp)
	movl	$5, -39160(%rbp)
	movl	$5, -39164(%rbp)
	movl	$5, -39168(%rbp)
	movl	$5, -39172(%rbp)
	movl	$5, -39176(%rbp)
	movl	$5, -39180(%rbp)
	movl	$5, -39184(%rbp)
	movl	$5, -39188(%rbp)
	movl	$5, -39192(%rbp)
	movl	$5, -39196(%rbp)
	movl	$5, -39200(%rbp)
	movl	$5, -39204(%rbp)
	movl	$5, -39208(%rbp)
	movl	$5, -39212(%rbp)
	movl	$5, -39216(%rbp)
	movl	$5, -39220(%rbp)
	movl	$5, -39224(%rbp)
	movl	$5, -39228(%rbp)
	movl	$5, -39232(%rbp)
	movl	$5, -39236(%rbp)
	movl	$5, -39240(%rbp)
	movl	$5, -39244(%rbp)
	movl	$5, -39248(%rbp)
	movl	$5, -39252(%rbp)
	movl	$5, -39256(%rbp)
	movl	$5, -39260(%rbp)
	movl	$5, -39264(%rbp)
	movl	$5, -39268(%rbp)
	movl	$5, -39272(%rbp)
	movl	$5, -39276(%rbp)
	movl	$5, -39280(%rbp)
	movl	$5, -39284(%rbp)
	movl	$5, -39288(%rbp)
	movl	$5, -39292(%rbp)
	movl	$5, -39296(%rbp)
	movl	$5, -39300(%rbp)
	movl	$5, -39304(%rbp)
	movl	$5, -39308(%rbp)
	movl	$5, -39312(%rbp)
	movl	$5, -39316(%rbp)
	movl	$5, -39320(%rbp)
	movl	$5, -39324(%rbp)
	movl	$5, -39328(%rbp)
	movl	$5, -39332(%rbp)
	movl	$5, -39336(%rbp)
	movl	$5, -39340(%rbp)
	movl	$5, -39344(%rbp)
	movl	$5, -39348(%rbp)
	movl	$5, -39352(%rbp)
	movl	$5, -39356(%rbp)
	movl	$5, -39360(%rbp)
	movl	$5, -39364(%rbp)
	movl	$5, -39368(%rbp)
	movl	$5, -39372(%rbp)
	movl	$5, -39376(%rbp)
	movl	$5, -39380(%rbp)
	movl	$5, -39384(%rbp)
	movl	$5, -39388(%rbp)
	movl	$5, -39392(%rbp)
	movl	$5, -39396(%rbp)
	movl	$5, -39400(%rbp)
	movl	$5, -39404(%rbp)
	movl	$5, -39408(%rbp)
	movl	$5, -39412(%rbp)
	movl	$5, -39416(%rbp)
	movl	$5, -39420(%rbp)
	movl	$5, -39424(%rbp)
	movl	$5, -39428(%rbp)
	movl	$5, -39432(%rbp)
	movl	$5, -39436(%rbp)
	movl	$5, -39440(%rbp)
	movl	$5, -39444(%rbp)
	movl	$5, -39448(%rbp)
	movl	$5, -39452(%rbp)
	movl	$5, -39456(%rbp)
	movl	$5, -39460(%rbp)
	movl	$5, -39464(%rbp)
	movl	$5, -39468(%rbp)
	movl	$5, -39472(%rbp)
	movl	$5, -39476(%rbp)
	movl	$5, -39480(%rbp)
	movl	$5, -39484(%rbp)
	movl	$5, -39488(%rbp)
	movl	$5, -39492(%rbp)
	movl	$5, -39496(%rbp)
	movl	$5, -39500(%rbp)
	movl	$5, -39504(%rbp)
	movl	$5, -39508(%rbp)
	movl	$5, -39512(%rbp)
	movl	$5, -39516(%rbp)
	movl	$5, -39520(%rbp)
	movl	$5, -39524(%rbp)
	movl	$5, -39528(%rbp)
	movl	$5, -39532(%rbp)
	movl	$5, -39536(%rbp)
	movl	$5, -39540(%rbp)
	movl	$5, -39544(%rbp)
	movl	$5, -39548(%rbp)
	movl	$5, -39552(%rbp)
	movl	$5, -39556(%rbp)
	movl	$5, -39560(%rbp)
	movl	$5, -39564(%rbp)
	movl	$5, -39568(%rbp)
	movl	$5, -39572(%rbp)
	movl	$5, -39576(%rbp)
	movl	$5, -39580(%rbp)
	movl	$5, -39584(%rbp)
	movl	$5, -39588(%rbp)
	movl	$5, -39592(%rbp)
	movl	$5, -39596(%rbp)
	movl	$5, -39600(%rbp)
	movl	$5, -39604(%rbp)
	movl	$5, -39608(%rbp)
	movl	$5, -39612(%rbp)
	movl	$5, -39616(%rbp)
	movl	$5, -39620(%rbp)
	movl	$5, -39624(%rbp)
	movl	$5, -39628(%rbp)
	movl	$5, -39632(%rbp)
	movl	$5, -39636(%rbp)
	movl	$5, -39640(%rbp)
	movl	$5, -39644(%rbp)
	movl	$5, -39648(%rbp)
	movl	$5, -39652(%rbp)
	movl	$5, -39656(%rbp)
	movl	$5, -39660(%rbp)
	movl	$5, -39664(%rbp)
	movl	$5, -39668(%rbp)
	movl	$5, -39672(%rbp)
	movl	$5, -39676(%rbp)
	movl	$5, -39680(%rbp)
	movl	$5, -39684(%rbp)
	movl	$5, -39688(%rbp)
	movl	$5, -39692(%rbp)
	movl	$5, -39696(%rbp)
	movl	$5, -39700(%rbp)
	movl	$5, -39704(%rbp)
	movl	$5, -39708(%rbp)
	movl	$5, -39712(%rbp)
	movl	$5, -39716(%rbp)
	movl	$5, -39720(%rbp)
	movl	$5, -39724(%rbp)
	movl	$5, -39728(%rbp)
	movl	$5, -39732(%rbp)
	movl	$5, -39736(%rbp)
	movl	$5, -39740(%rbp)
	movl	$5, -39744(%rbp)
	movl	$5, -39748(%rbp)
	movl	$5, -39752(%rbp)
	movl	$5, -39756(%rbp)
	movl	$5, -39760(%rbp)
	movl	$5, -39764(%rbp)
	movl	$5, -39768(%rbp)
	movl	$5, -39772(%rbp)
	movl	$5, -39776(%rbp)
	movl	$5, -39780(%rbp)
	movl	$5, -39784(%rbp)
	movl	$5, -39788(%rbp)
	movl	$5, -39792(%rbp)
	movl	$5, -39796(%rbp)
	movl	$5, -39800(%rbp)
	movl	$5, -39804(%rbp)
	movl	$5, -39808(%rbp)
	movl	$5, -39812(%rbp)
	movl	$5, -39816(%rbp)
	movl	$5, -39820(%rbp)
	movl	$5, -39824(%rbp)
	movl	$5, -39828(%rbp)
	movl	$5, -39832(%rbp)
	movl	$5, -39836(%rbp)
	movl	$5, -39840(%rbp)
	movl	$5, -39844(%rbp)
	movl	$5, -39848(%rbp)
	movl	$5, -39852(%rbp)
	movl	$5, -39856(%rbp)
	movl	$5, -39860(%rbp)
	movl	$5, -39864(%rbp)
	movl	$5, -39868(%rbp)
	movl	$5, -39872(%rbp)
	movl	$5, -39876(%rbp)
	movl	$5, -39880(%rbp)
	movl	$5, -39884(%rbp)
	movl	$5, -39888(%rbp)
	movl	$5, -39892(%rbp)
	movl	$5, -39896(%rbp)
	movl	$5, -39900(%rbp)
	movl	$5, -39904(%rbp)
	movl	$5, -39908(%rbp)
	movl	$5, -39912(%rbp)
	movl	$5, -39916(%rbp)
	movl	$5, -39920(%rbp)
	movl	$5, -39924(%rbp)
	movl	$5, -39928(%rbp)
	movl	$5, -39932(%rbp)
	movl	$5, -39936(%rbp)
	movl	$5, -39940(%rbp)
	movl	$5, -39944(%rbp)
	movl	$5, -39948(%rbp)
	movl	$5, -39952(%rbp)
	movl	$5, -39956(%rbp)
	movl	$5, -39960(%rbp)
	movl	$5, -39964(%rbp)
	movl	$5, -39968(%rbp)
	movl	$5, -39972(%rbp)
	movl	$5, -39976(%rbp)
	movl	$5, -39980(%rbp)
	movl	$5, -39984(%rbp)
	movl	$5, -39988(%rbp)
	movl	$5, -39992(%rbp)
	movl	$5, -39996(%rbp)
	movl	$5, -40000(%rbp)
	movl	$5, -40004(%rbp)
	movl	$5, -40008(%rbp)
	movl	$5, -40012(%rbp)
	movl	$5, -40016(%rbp)
	movl	$5, -40020(%rbp)
	movl	$5, -40024(%rbp)
	movl	$5, -40028(%rbp)
	movl	$5, -40032(%rbp)
	movl	$5, -40036(%rbp)
	movl	$5, -40040(%rbp)
	movl	$5, -40044(%rbp)
	movl	$5, -40048(%rbp)
	movl	$5, -40052(%rbp)
	movl	$5, -40056(%rbp)
	movl	$5, -40060(%rbp)
	movl	$5, -40064(%rbp)
	movl	$5, -40068(%rbp)
	movl	$5, -40072(%rbp)
	movl	$5, -40076(%rbp)
	movl	$5, -40080(%rbp)
	movl	$5, -40084(%rbp)
	movl	$5, -40088(%rbp)
	movl	$5, -40092(%rbp)
	movl	$5, -40096(%rbp)
	movl	$5, -40100(%rbp)
	movl	$5, -40104(%rbp)
	movl	$5, -40108(%rbp)
	movl	$5, -40112(%rbp)
	movl	$5, -40116(%rbp)
	movl	$5, -40120(%rbp)
	movl	$5, -40124(%rbp)
	movl	$5, -40128(%rbp)
	movl	$5, -40132(%rbp)
	movl	$5, -40136(%rbp)
	movl	$5, -40140(%rbp)
	movl	$5, -40144(%rbp)
	movl	$5, -40148(%rbp)
	movl	$5, -40152(%rbp)
	movl	$5, -40156(%rbp)
	movl	$5, -40160(%rbp)
	movl	$5, -40164(%rbp)
	movl	$5, -40168(%rbp)
	movl	$5, -40172(%rbp)
	movl	$5, -40176(%rbp)
	movl	$5, -40180(%rbp)
	movl	$5, -40184(%rbp)
	movl	$5, -40188(%rbp)
	movl	$5, -40192(%rbp)
	movl	$5, -40196(%rbp)
	movl	$5, -40200(%rbp)
	movl	$5, -40204(%rbp)
	movl	$5, -40208(%rbp)
	movl	$5, -40212(%rbp)
	movl	$5, -40216(%rbp)
	movl	$5, -40220(%rbp)
	movl	$5, -40224(%rbp)
	movl	$5, -40228(%rbp)
	movl	$5, -40232(%rbp)
	movl	$5, -40236(%rbp)
	movl	$5, -40240(%rbp)
	movl	$5, -40244(%rbp)
	movl	$5, -40248(%rbp)
	movl	$5, -40252(%rbp)
	movl	$5, -40256(%rbp)
	movl	$5, -40260(%rbp)
	movl	$5, -40264(%rbp)
	movl	$5, -40268(%rbp)
	movl	$5, -40272(%rbp)
	movl	$5, -40276(%rbp)
	movl	$5, -40280(%rbp)
	movl	$5, -40284(%rbp)
	movl	$5, -40288(%rbp)
	movl	$5, -40292(%rbp)
	movl	$5, -40296(%rbp)
	movl	$5, -40300(%rbp)
	movl	$5, -40304(%rbp)
	movl	$5, -40308(%rbp)
	movl	$5, -40312(%rbp)
	movl	$5, -40316(%rbp)
	movl	$5, -40320(%rbp)
	movl	$5, -40324(%rbp)
	movl	$5, -40328(%rbp)
	movl	$5, -40332(%rbp)
	movl	$5, -40336(%rbp)
	movl	$5, -40340(%rbp)
	movl	$5, -40344(%rbp)
	movl	$5, -40348(%rbp)
	movl	$5, -40352(%rbp)
	movl	$5, -40356(%rbp)
	movl	$5, -40360(%rbp)
	movl	$5, -40364(%rbp)
	movl	$5, -40368(%rbp)
	movl	$5, -40372(%rbp)
	movl	$5, -40376(%rbp)
	movl	$5, -40380(%rbp)
	movl	$5, -40384(%rbp)
	movl	$5, -40388(%rbp)
	movl	$5, -40392(%rbp)
	movl	$5, -40396(%rbp)
	movl	$5, -40400(%rbp)
	movl	$5, -40404(%rbp)
	movl	$5, -40408(%rbp)
	movl	$5, -40412(%rbp)
	movl	$5, -40416(%rbp)
	movl	$5, -40420(%rbp)
	movl	$5, -40424(%rbp)
	movl	$5, -40428(%rbp)
	movl	$5, -40432(%rbp)
	movl	$5, -40436(%rbp)
	movl	$5, -40440(%rbp)
	movl	$5, -40444(%rbp)
	movl	$5, -40448(%rbp)
	movl	$5, -40452(%rbp)
	movl	$5, -40456(%rbp)
	movl	$5, -40460(%rbp)
	movl	$5, -40464(%rbp)
	movl	$5, -40468(%rbp)
	movl	$5, -40472(%rbp)
	movl	$5, -40476(%rbp)
	movl	$5, -40480(%rbp)
	movl	$5, -40484(%rbp)
	movl	$5, -40488(%rbp)
	movl	$5, -40492(%rbp)
	movl	$5, -40496(%rbp)
	movl	$5, -40500(%rbp)
	movl	$5, -40504(%rbp)
	movl	$5, -40508(%rbp)
	movl	$5, -40512(%rbp)
	movl	$5, -40516(%rbp)
	movl	$5, -40520(%rbp)
	movl	$5, -40524(%rbp)
	movl	$5, -40528(%rbp)
	movl	$5, -40532(%rbp)
	movl	$5, -40536(%rbp)
	movl	$5, -40540(%rbp)
	movl	$5, -40544(%rbp)
	movl	$5, -40548(%rbp)
	movl	$5, -40552(%rbp)
	movl	$5, -40556(%rbp)
	movl	$5, -40560(%rbp)
	movl	$5, -40564(%rbp)
	movl	$5, -40568(%rbp)
	movl	$5, -40572(%rbp)
	movl	$5, -40576(%rbp)
	movl	$5, -40580(%rbp)
	movl	$5, -40584(%rbp)
	movl	$5, -40588(%rbp)
	movl	$5, -40592(%rbp)
	movl	$5, -40596(%rbp)
	movl	$5, -40600(%rbp)
	movl	$5, -40604(%rbp)
	movl	$5, -40608(%rbp)
	movl	$5, -40612(%rbp)
	movl	$5, -40616(%rbp)
	movl	$5, -40620(%rbp)
	movl	$5, -40624(%rbp)
	movl	$5, -40628(%rbp)
	movl	$5, -40632(%rbp)
	movl	$5, -40636(%rbp)
	movl	$5, -40640(%rbp)
	movl	$5, -40644(%rbp)
	movl	$5, -40648(%rbp)
	movl	$5, -40652(%rbp)
	movl	$5, -40656(%rbp)
	movl	$5, -40660(%rbp)
	movl	$5, -40664(%rbp)
	movl	$5, -40668(%rbp)
	movl	$5, -40672(%rbp)
	movl	$5, -40676(%rbp)
	movl	$5, -40680(%rbp)
	movl	$5, -40684(%rbp)
	movl	$5, -40688(%rbp)
	movl	$5, -40692(%rbp)
	movl	$5, -40696(%rbp)
	movl	$5, -40700(%rbp)
	movl	$5, -40704(%rbp)
	movl	$5, -40708(%rbp)
	movl	$5, -40712(%rbp)
	movl	$5, -40716(%rbp)
	movl	$5, -40720(%rbp)
	movl	$5, -40724(%rbp)
	movl	$5, -40728(%rbp)
	movl	$5, -40732(%rbp)
	movl	$5, -40736(%rbp)
	movl	$5, -40740(%rbp)
	movl	$5, -40744(%rbp)
	movl	$5, -40748(%rbp)
	movl	$5, -40752(%rbp)
	movl	$5, -40756(%rbp)
	movl	$5, -40760(%rbp)
	movl	$5, -40764(%rbp)
	movl	$5, -40768(%rbp)
	movl	$5, -40772(%rbp)
	movl	$5, -40776(%rbp)
	movl	$5, -40780(%rbp)
	movl	$5, -40784(%rbp)
	movl	$5, -40788(%rbp)
	movl	$5, -40792(%rbp)
	movl	$5, -40796(%rbp)
	movl	$5, -40800(%rbp)
	movl	$5, -40804(%rbp)
	movl	$5, -40808(%rbp)
	movl	$5, -40812(%rbp)
	movl	$5, -40816(%rbp)
	movl	$5, -40820(%rbp)
	movl	$5, -40824(%rbp)
	movl	$5, -40828(%rbp)
	movl	$5, -40832(%rbp)
	movl	$5, -40836(%rbp)
	movl	$5, -40840(%rbp)
	movl	$5, -40844(%rbp)
	movl	$5, -40848(%rbp)
	movl	$5, -40852(%rbp)
	movl	$5, -40856(%rbp)
	movl	$5, -40860(%rbp)
	movl	$5, -40864(%rbp)
	movl	$5, -40868(%rbp)
	movl	$5, -40872(%rbp)
	movl	$5, -40876(%rbp)
	movl	$5, -40880(%rbp)
	movl	$5, -40884(%rbp)
	movl	$5, -40888(%rbp)
	movl	$5, -40892(%rbp)
	movl	$5, -40896(%rbp)
	movl	$5, -40900(%rbp)
	movl	$5, -40904(%rbp)
	movl	$5, -40908(%rbp)
	movl	$5, -40912(%rbp)
	movl	$5, -40916(%rbp)
	movl	$5, -40920(%rbp)
	movl	$5, -40924(%rbp)
	movl	$5, -40928(%rbp)
	movl	$5, -40932(%rbp)
	movl	$5, -40936(%rbp)
	movl	$5, -40940(%rbp)
	movl	$5, -40944(%rbp)
	movl	$5, -40948(%rbp)
	movl	$5, -40952(%rbp)
	movl	$5, -40956(%rbp)
	movl	$5, -40960(%rbp)
	movl	$5, -40964(%rbp)
	movl	$5, -40968(%rbp)
	movl	$5, -40972(%rbp)
	movl	$5, -40976(%rbp)
	movl	$5, -40980(%rbp)
	movl	$5, -40984(%rbp)
	movl	$5, -40988(%rbp)
	movl	$5, -40992(%rbp)
	movl	$5, -40996(%rbp)
	movl	$5, -41000(%rbp)
	movl	$5, -41004(%rbp)
	movl	$5, -41008(%rbp)
	movl	$5, -41012(%rbp)
	movl	$5, -41016(%rbp)
	movl	$5, -41020(%rbp)
	movl	$5, -41024(%rbp)
	movl	$5, -41028(%rbp)
	movl	$5, -41032(%rbp)
	movl	$5, -41036(%rbp)
	movl	$5, -41040(%rbp)
	movl	$5, -41044(%rbp)
	movl	$5, -41048(%rbp)
	movl	$5, -41052(%rbp)
	movl	$5, -41056(%rbp)
	movl	$5, -41060(%rbp)
	movl	$5, -41064(%rbp)
	movl	$5, -41068(%rbp)
	movl	$5, -41072(%rbp)
	movl	$5, -41076(%rbp)
	movl	$5, -41080(%rbp)
	movl	$5, -41084(%rbp)
	movl	$5, -41088(%rbp)
	movl	$5, -41092(%rbp)
	movl	$5, -41096(%rbp)
	movl	$5, -41100(%rbp)
	movl	$5, -41104(%rbp)
	movl	$5, -41108(%rbp)
	movl	$5, -41112(%rbp)
	movl	$5, -41116(%rbp)
	movl	$5, -41120(%rbp)
	movl	$5, -41124(%rbp)
	movl	$5, -41128(%rbp)
	movl	$5, -41132(%rbp)
	movl	$5, -41136(%rbp)
	movl	$5, -41140(%rbp)
	movl	$5, -41144(%rbp)
	movl	$5, -41148(%rbp)
	movl	$5, -41152(%rbp)
	movl	$5, -41156(%rbp)
	movl	$5, -41160(%rbp)
	movl	$5, -41164(%rbp)
	movl	$5, -41168(%rbp)
	movl	$5, -41172(%rbp)
	movl	$5, -41176(%rbp)
	movl	$5, -41180(%rbp)
	movl	$5, -41184(%rbp)
	movl	$5, -41188(%rbp)
	movl	$5, -41192(%rbp)
	movl	$5, -41196(%rbp)
	movl	$5, -41200(%rbp)
	movl	$5, -41204(%rbp)
	movl	$5, -41208(%rbp)
	movl	$5, -41212(%rbp)
	movl	$5, -41216(%rbp)
	movl	$5, -41220(%rbp)
	movl	$5, -41224(%rbp)
	movl	$5, -41228(%rbp)
	movl	$5, -41232(%rbp)
	movl	$5, -41236(%rbp)
	movl	$5, -41240(%rbp)
	movl	$5, -41244(%rbp)
	movl	$5, -41248(%rbp)
	movl	$5, -41252(%rbp)
	movl	$5, -41256(%rbp)
	movl	$5, -41260(%rbp)
	movl	$5, -41264(%rbp)
	movl	$5, -41268(%rbp)
	movl	$5, -41272(%rbp)
	movl	$5, -41276(%rbp)
	movl	$5, -41280(%rbp)
	movl	$5, -41284(%rbp)
	movl	$5, -41288(%rbp)
	movl	$5, -41292(%rbp)
	movl	$5, -41296(%rbp)
	movl	$5, -41300(%rbp)
	movl	$5, -41304(%rbp)
	movl	$5, -41308(%rbp)
	movl	$5, -41312(%rbp)
	movl	$5, -41316(%rbp)
	movl	$5, -41320(%rbp)
	movl	$5, -41324(%rbp)
	movl	$5, -41328(%rbp)
	movl	$5, -41332(%rbp)
	movl	$5, -41336(%rbp)
	movl	$5, -41340(%rbp)
	movl	$5, -41344(%rbp)
	movl	$5, -41348(%rbp)
	movl	$5, -41352(%rbp)
	movl	$5, -41356(%rbp)
	movl	$5, -41360(%rbp)
	movl	$5, -41364(%rbp)
	movl	$5, -41368(%rbp)
	movl	$5, -41372(%rbp)
	movl	$5, -41376(%rbp)
	movl	$5, -41380(%rbp)
	movl	$5, -41384(%rbp)
	movl	$5, -41388(%rbp)
	movl	$5, -41392(%rbp)
	movl	$5, -41396(%rbp)
	movl	$5, -41400(%rbp)
	movl	$5, -41404(%rbp)
	movl	$5, -41408(%rbp)
	movl	$5, -41412(%rbp)
	movl	$5, -41416(%rbp)
	movl	$5, -41420(%rbp)
	movl	$5, -41424(%rbp)
	movl	$5, -41428(%rbp)
	movl	$5, -41432(%rbp)
	movl	$5, -41436(%rbp)
	movl	$5, -41440(%rbp)
	movl	$5, -41444(%rbp)
	movl	$5, -41448(%rbp)
	movl	$5, -41452(%rbp)
	movl	$5, -41456(%rbp)
	movl	$5, -41460(%rbp)
	movl	$5, -41464(%rbp)
	movl	$5, -41468(%rbp)
	movl	$5, -41472(%rbp)
	movl	$5, -41476(%rbp)
	movl	$5, -41480(%rbp)
	movl	$5, -41484(%rbp)
	movl	$5, -41488(%rbp)
	movl	$5, -41492(%rbp)
	movl	$5, -41496(%rbp)
	movl	$5, -41500(%rbp)
	movl	$5, -41504(%rbp)
	movl	$5, -41508(%rbp)
	movl	$5, -41512(%rbp)
	movl	$5, -41516(%rbp)
	movl	$5, -41520(%rbp)
	movl	$5, -41524(%rbp)
	movl	$5, -41528(%rbp)
	movl	$5, -41532(%rbp)
	movl	$5, -41536(%rbp)
	movl	$5, -41540(%rbp)
	movl	$5, -41544(%rbp)
	movl	$5, -41548(%rbp)
	movl	$5, -41552(%rbp)
	movl	$5, -41556(%rbp)
	movl	$5, -41560(%rbp)
	movl	$5, -41564(%rbp)
	movl	$5, -41568(%rbp)
	movl	$5, -41572(%rbp)
	movl	$5, -41576(%rbp)
	movl	$5, -41580(%rbp)
	movl	$5, -41584(%rbp)
	movl	$5, -41588(%rbp)
	movl	$5, -41592(%rbp)
	movl	$5, -41596(%rbp)
	movl	$5, -41600(%rbp)
	movl	$5, -41604(%rbp)
	movl	$5, -41608(%rbp)
	movl	$5, -41612(%rbp)
	movl	$5, -41616(%rbp)
	movl	$5, -41620(%rbp)
	movl	$5, -41624(%rbp)
	movl	$5, -41628(%rbp)
	movl	$5, -41632(%rbp)
	movl	$5, -41636(%rbp)
	movl	$5, -41640(%rbp)
	movl	$5, -41644(%rbp)
	movl	$5, -41648(%rbp)
	movl	$5, -41652(%rbp)
	movl	$5, -41656(%rbp)
	movl	$5, -41660(%rbp)
	movl	$5, -41664(%rbp)
	movl	$5, -41668(%rbp)
	movl	$5, -41672(%rbp)
	movl	$5, -41676(%rbp)
	movl	$5, -41680(%rbp)
	movl	$5, -41684(%rbp)
	movl	$5, -41688(%rbp)
	movl	$5, -41692(%rbp)
	movl	$5, -41696(%rbp)
	movl	$5, -41700(%rbp)
	movl	$5, -41704(%rbp)
	movl	$5, -41708(%rbp)
	movl	$5, -41712(%rbp)
	movl	$5, -41716(%rbp)
	movl	$5, -41720(%rbp)
	movl	$5, -41724(%rbp)
	movl	$5, -41728(%rbp)
	movl	$5, -41732(%rbp)
	movl	$5, -41736(%rbp)
	movl	$5, -41740(%rbp)
	movl	$5, -41744(%rbp)
	movl	$5, -41748(%rbp)
	movl	$5, -41752(%rbp)
	movl	$5, -41756(%rbp)
	movl	$5, -41760(%rbp)
	movl	$5, -41764(%rbp)
	movl	$5, -41768(%rbp)
	movl	$5, -41772(%rbp)
	movl	$5, -41776(%rbp)
	movl	$5, -41780(%rbp)
	movl	$5, -41784(%rbp)
	movl	$5, -41788(%rbp)
	movl	$5, -41792(%rbp)
	movl	$5, -41796(%rbp)
	movl	$5, -41800(%rbp)
	movl	$5, -41804(%rbp)
	movl	$5, -41808(%rbp)
	movl	$5, -41812(%rbp)
	movl	$5, -41816(%rbp)
	movl	$5, -41820(%rbp)
	movl	$5, -41824(%rbp)
	movl	$5, -41828(%rbp)
	movl	$5, -41832(%rbp)
	movl	$5, -41836(%rbp)
	movl	$5, -41840(%rbp)
	movl	$5, -41844(%rbp)
	movl	$5, -41848(%rbp)
	movl	$5, -41852(%rbp)
	movl	$5, -41856(%rbp)
	movl	$5, -41860(%rbp)
	movl	$5, -41864(%rbp)
	movl	$5, -41868(%rbp)
	movl	$5, -41872(%rbp)
	movl	$5, -41876(%rbp)
	movl	$5, -41880(%rbp)
	movl	$5, -41884(%rbp)
	movl	$5, -41888(%rbp)
	movl	$5, -41892(%rbp)
	movl	$5, -41896(%rbp)
	movl	$5, -41900(%rbp)
	movl	$5, -41904(%rbp)
	movl	$5, -41908(%rbp)
	movl	$5, -41912(%rbp)
	movl	$5, -41916(%rbp)
	movl	$5, -41920(%rbp)
	movl	$5, -41924(%rbp)
	movl	$5, -41928(%rbp)
	movl	$5, -41932(%rbp)
	movl	$5, -41936(%rbp)
	movl	$5, -41940(%rbp)
	movl	$5, -41944(%rbp)
	movl	$5, -41948(%rbp)
	movl	$5, -41952(%rbp)
	movl	$5, -41956(%rbp)
	movl	$5, -41960(%rbp)
	movl	$5, -41964(%rbp)
	movl	$5, -41968(%rbp)
	movl	$5, -41972(%rbp)
	movl	$5, -41976(%rbp)
	movl	$5, -41980(%rbp)
	movl	$5, -41984(%rbp)
	movl	$5, -41988(%rbp)
	movl	$5, -41992(%rbp)
	movl	$5, -41996(%rbp)
	movl	$5, -42000(%rbp)
	movl	$5, -42004(%rbp)
	movl	$5, -42008(%rbp)
	movl	$5, -42012(%rbp)
	movl	$5, -42016(%rbp)
	movl	$5, -42020(%rbp)
	movl	$5, -42024(%rbp)
	movl	$5, -42028(%rbp)
	movl	$5, -42032(%rbp)
	movl	$5, -42036(%rbp)
	movl	$5, -42040(%rbp)
	movl	$5, -42044(%rbp)
	movl	$5, -42048(%rbp)
	movl	$5, -42052(%rbp)
	movl	$5, -42056(%rbp)
	movl	$5, -42060(%rbp)
	movl	$5, -42064(%rbp)
	movl	$5, -42068(%rbp)
	movl	$5, -42072(%rbp)
	movl	$5, -42076(%rbp)
	movl	$5, -42080(%rbp)
	movl	$5, -42084(%rbp)
	movl	$5, -42088(%rbp)
	movl	$5, -42092(%rbp)
	movl	$5, -42096(%rbp)
	movl	$5, -42100(%rbp)
	movl	$5, -42104(%rbp)
	movl	$5, -42108(%rbp)
	movl	$5, -42112(%rbp)
	movl	$5, -42116(%rbp)
	movl	$5, -42120(%rbp)
	movl	$5, -42124(%rbp)
	movl	$5, -42128(%rbp)
	movl	$5, -42132(%rbp)
	movl	$5, -42136(%rbp)
	movl	$5, -42140(%rbp)
	movl	$5, -42144(%rbp)
	movl	$5, -42148(%rbp)
	movl	$5, -42152(%rbp)
	movl	$5, -42156(%rbp)
	movl	$5, -42160(%rbp)
	movl	$5, -42164(%rbp)
	movl	$5, -42168(%rbp)
	movl	$5, -42172(%rbp)
	movl	$5, -42176(%rbp)
	movl	$5, -42180(%rbp)
	movl	$5, -42184(%rbp)
	movl	$5, -42188(%rbp)
	movl	$5, -42192(%rbp)
	movl	$5, -42196(%rbp)
	movl	$5, -42200(%rbp)
	movl	$5, -42204(%rbp)
	movl	$5, -42208(%rbp)
	movl	$5, -42212(%rbp)
	movl	$5, -42216(%rbp)
	movl	$5, -42220(%rbp)
	movl	$5, -42224(%rbp)
	movl	$5, -42228(%rbp)
	movl	$5, -42232(%rbp)
	movl	$5, -42236(%rbp)
	movl	$5, -42240(%rbp)
	movl	$5, -42244(%rbp)
	movl	$5, -42248(%rbp)
	movl	$5, -42252(%rbp)
	movl	$5, -42256(%rbp)
	movl	$5, -42260(%rbp)
	movl	$5, -42264(%rbp)
	movl	$5, -42268(%rbp)
	movl	$5, -42272(%rbp)
	movl	$5, -42276(%rbp)
	movl	$5, -42280(%rbp)
	movl	$5, -42284(%rbp)
	movl	$5, -42288(%rbp)
	movl	$5, -42292(%rbp)
	movl	$5, -42296(%rbp)
	movl	$5, -42300(%rbp)
	movl	$5, -42304(%rbp)
	movl	$5, -42308(%rbp)
	movl	$5, -42312(%rbp)
	movl	$5, -42316(%rbp)
	movl	$5, -42320(%rbp)
	movl	$5, -42324(%rbp)
	movl	$5, -42328(%rbp)
	movl	$5, -42332(%rbp)
	movl	$5, -42336(%rbp)
	movl	$5, -42340(%rbp)
	movl	$5, -42344(%rbp)
	movl	$5, -42348(%rbp)
	movl	$5, -42352(%rbp)
	movl	$5, -42356(%rbp)
	movl	$5, -42360(%rbp)
	movl	$5, -42364(%rbp)
	movl	$5, -42368(%rbp)
	movl	$5, -42372(%rbp)
	movl	$5, -42376(%rbp)
	movl	$5, -42380(%rbp)
	movl	$5, -42384(%rbp)
	movl	$5, -42388(%rbp)
	movl	$5, -42392(%rbp)
	movl	$5, -42396(%rbp)
	movl	$5, -42400(%rbp)
	movl	$5, -42404(%rbp)
	movl	$5, -42408(%rbp)
	movl	$5, -42412(%rbp)
	movl	$5, -42416(%rbp)
	movl	$5, -42420(%rbp)
	movl	$5, -42424(%rbp)
	movl	$5, -42428(%rbp)
	movl	$5, -42432(%rbp)
	movl	$5, -42436(%rbp)
	movl	$5, -42440(%rbp)
	movl	$5, -42444(%rbp)
	movl	$5, -42448(%rbp)
	movl	$5, -42452(%rbp)
	movl	$5, -42456(%rbp)
	movl	$5, -42460(%rbp)
	movl	$5, -42464(%rbp)
	movl	$5, -42468(%rbp)
	movl	$5, -42472(%rbp)
	movl	$5, -42476(%rbp)
	movl	$5, -42480(%rbp)
	movl	$5, -42484(%rbp)
	movl	$5, -42488(%rbp)
	movl	$5, -42492(%rbp)
	movl	$5, -42496(%rbp)
	movl	$5, -42500(%rbp)
	movl	$5, -42504(%rbp)
	movl	$5, -42508(%rbp)
	movl	$5, -42512(%rbp)
	movl	$5, -42516(%rbp)
	movl	$5, -42520(%rbp)
	movl	$5, -42524(%rbp)
	movl	$5, -42528(%rbp)
	movl	$5, -42532(%rbp)
	movl	$5, -42536(%rbp)
	movl	$5, -42540(%rbp)
	movl	$5, -42544(%rbp)
	movl	$5, -42548(%rbp)
	movl	$5, -42552(%rbp)
	movl	$5, -42556(%rbp)
	movl	$5, -42560(%rbp)
	movl	$5, -42564(%rbp)
	movl	$5, -42568(%rbp)
	movl	$5, -42572(%rbp)
	movl	$5, -42576(%rbp)
	movl	$5, -42580(%rbp)
	movl	$5, -42584(%rbp)
	movl	$5, -42588(%rbp)
	movl	$5, -42592(%rbp)
	movl	$5, -42596(%rbp)
	movl	$5, -42600(%rbp)
	movl	$5, -42604(%rbp)
	movl	$5, -42608(%rbp)
	movl	$5, -42612(%rbp)
	movl	$5, -42616(%rbp)
	movl	$5, -42620(%rbp)
	movl	$5, -42624(%rbp)
	movl	$5, -42628(%rbp)
	movl	$5, -42632(%rbp)
	movl	$5, -42636(%rbp)
	movl	$5, -42640(%rbp)
	movl	$5, -42644(%rbp)
	movl	$5, -42648(%rbp)
	movl	$5, -42652(%rbp)
	movl	$5, -42656(%rbp)
	movl	$5, -42660(%rbp)
	movl	$5, -42664(%rbp)
	movl	$5, -42668(%rbp)
	movl	$5, -42672(%rbp)
	movl	$5, -42676(%rbp)
	movl	$5, -42680(%rbp)
	movl	$5, -42684(%rbp)
	movl	$5, -42688(%rbp)
	movl	$5, -42692(%rbp)
	movl	$5, -42696(%rbp)
	movl	$5, -42700(%rbp)
	movl	$5, -42704(%rbp)
	movl	$5, -42708(%rbp)
	movl	$5, -42712(%rbp)
	movl	$5, -42716(%rbp)
	movl	$5, -42720(%rbp)
	movl	$5, -42724(%rbp)
	movl	$5, -42728(%rbp)
	movl	$5, -42732(%rbp)
	movl	$5, -42736(%rbp)
	movl	$5, -42740(%rbp)
	movl	$5, -42744(%rbp)
	movl	$5, -42748(%rbp)
	movl	$5, -42752(%rbp)
	movl	$5, -42756(%rbp)
	movl	$5, -42760(%rbp)
	movl	$5, -42764(%rbp)
	movl	$5, -42768(%rbp)
	movl	$5, -42772(%rbp)
	movl	$5, -42776(%rbp)
	movl	$5, -42780(%rbp)
	movl	$5, -42784(%rbp)
	movl	$5, -42788(%rbp)
	movl	$5, -42792(%rbp)
	movl	$5, -42796(%rbp)
	movl	$5, -42800(%rbp)
	movl	$5, -42804(%rbp)
	movl	$5, -42808(%rbp)
	movl	$5, -42812(%rbp)
	movl	$5, -42816(%rbp)
	movl	$5, -42820(%rbp)
	movl	$5, -42824(%rbp)
	movl	$5, -42828(%rbp)
	movl	$5, -42832(%rbp)
	movl	$5, -42836(%rbp)
	movl	$5, -42840(%rbp)
	movl	$5, -42844(%rbp)
	movl	$5, -42848(%rbp)
	movl	$5, -42852(%rbp)
	movl	$5, -42856(%rbp)
	movl	$5, -42860(%rbp)
	movl	$5, -42864(%rbp)
	movl	$5, -42868(%rbp)
	movl	$5, -42872(%rbp)
	movl	$5, -42876(%rbp)
	movl	$5, -42880(%rbp)
	movl	$5, -42884(%rbp)
	movl	$5, -42888(%rbp)
	movl	$5, -42892(%rbp)
	movl	$5, -42896(%rbp)
	movl	$5, -42900(%rbp)
	movl	$5, -42904(%rbp)
	movl	$5, -42908(%rbp)
	movl	$5, -42912(%rbp)
	movl	$5, -42916(%rbp)
	movl	$5, -42920(%rbp)
	movl	$5, -42924(%rbp)
	movl	$5, -42928(%rbp)
	movl	$5, -42932(%rbp)
	movl	$5, -42936(%rbp)
	movl	$5, -42940(%rbp)
	movl	$5, -42944(%rbp)
	movl	$5, -42948(%rbp)
	movl	$5, -42952(%rbp)
	movl	$5, -42956(%rbp)
	movl	$5, -42960(%rbp)
	movl	$5, -42964(%rbp)
	movl	$5, -42968(%rbp)
	movl	$5, -42972(%rbp)
	movl	$5, -42976(%rbp)
	movl	$5, -42980(%rbp)
	movl	$5, -42984(%rbp)
	movl	$5, -42988(%rbp)
	movl	$5, -42992(%rbp)
	movl	$5, -42996(%rbp)
	movl	$5, -43000(%rbp)
	movl	$5, -43004(%rbp)
	movl	$5, -43008(%rbp)
	movl	$5, -43012(%rbp)
	movl	$5, -43016(%rbp)
	movl	$5, -43020(%rbp)
	movl	$5, -43024(%rbp)
	movl	$5, -43028(%rbp)
	movl	$5, -43032(%rbp)
	movl	$5, -43036(%rbp)
	movl	$5, -43040(%rbp)
	movl	$5, -43044(%rbp)
	movl	$5, -43048(%rbp)
	movl	$5, -43052(%rbp)
	movl	$5, -43056(%rbp)
	movl	$5, -43060(%rbp)
	movl	$5, -43064(%rbp)
	movl	$5, -43068(%rbp)
	movl	$5, -43072(%rbp)
	movl	$5, -43076(%rbp)
	movl	$5, -43080(%rbp)
	movl	$5, -43084(%rbp)
	movl	$5, -43088(%rbp)
	movl	$5, -43092(%rbp)
	movl	$5, -43096(%rbp)
	movl	$5, -43100(%rbp)
	movl	$5, -43104(%rbp)
	movl	$5, -43108(%rbp)
	movl	$5, -43112(%rbp)
	movl	$5, -43116(%rbp)
	movl	$5, -43120(%rbp)
	movl	$5, -43124(%rbp)
	movl	$5, -43128(%rbp)
	movl	$5, -43132(%rbp)
	movl	$5, -43136(%rbp)
	movl	$5, -43140(%rbp)
	movl	$5, -43144(%rbp)
	movl	$5, -43148(%rbp)
	movl	$5, -43152(%rbp)
	movl	$5, -43156(%rbp)
	movl	$5, -43160(%rbp)
	movl	$5, -43164(%rbp)
	movl	$5, -43168(%rbp)
	movl	$5, -43172(%rbp)
	movl	$5, -43176(%rbp)
	movl	$5, -43180(%rbp)
	movl	$5, -43184(%rbp)
	movl	$5, -43188(%rbp)
	movl	$5, -43192(%rbp)
	movl	$5, -43196(%rbp)
	movl	$5, -43200(%rbp)
	movl	$5, -43204(%rbp)
	movl	$5, -43208(%rbp)
	movl	$5, -43212(%rbp)
	movl	$5, -43216(%rbp)
	movl	$5, -43220(%rbp)
	movl	$5, -43224(%rbp)
	movl	$5, -43228(%rbp)
	movl	$5, -43232(%rbp)
	movl	$5, -43236(%rbp)
	movl	$5, -43240(%rbp)
	movl	$5, -43244(%rbp)
	movl	$5, -43248(%rbp)
	movl	$5, -43252(%rbp)
	movl	$5, -43256(%rbp)
	movl	$5, -43260(%rbp)
	movl	$5, -43264(%rbp)
	movl	$5, -43268(%rbp)
	movl	$5, -43272(%rbp)
	movl	$5, -43276(%rbp)
	movl	$5, -43280(%rbp)
	movl	$5, -43284(%rbp)
	movl	$5, -43288(%rbp)
	movl	$5, -43292(%rbp)
	movl	$5, -43296(%rbp)
	movl	$5, -43300(%rbp)
	movl	$5, -43304(%rbp)
	movl	$5, -43308(%rbp)
	movl	$5, -43312(%rbp)
	movl	$5, -43316(%rbp)
	movl	$5, -43320(%rbp)
	movl	$5, -43324(%rbp)
	movl	$5, -43328(%rbp)
	movl	$5, -43332(%rbp)
	movl	$5, -43336(%rbp)
	movl	$5, -43340(%rbp)
	movl	$5, -43344(%rbp)
	movl	$5, -43348(%rbp)
	movl	$5, -43352(%rbp)
	movl	$5, -43356(%rbp)
	movl	$5, -43360(%rbp)
	movl	$5, -43364(%rbp)
	movl	$5, -43368(%rbp)
	movl	$5, -43372(%rbp)
	movl	$5, -43376(%rbp)
	movl	$5, -43380(%rbp)
	movl	$5, -43384(%rbp)
	movl	$5, -43388(%rbp)
	movl	$5, -43392(%rbp)
	movl	$5, -43396(%rbp)
	movl	$5, -43400(%rbp)
	movl	$5, -43404(%rbp)
	movl	$5, -43408(%rbp)
	movl	$5, -43412(%rbp)
	movl	$5, -43416(%rbp)
	movl	$5, -43420(%rbp)
	movl	$5, -43424(%rbp)
	movl	$5, -43428(%rbp)
	movl	$5, -43432(%rbp)
	movl	$5, -43436(%rbp)
	movl	$5, -43440(%rbp)
	movl	$5, -43444(%rbp)
	movl	$5, -43448(%rbp)
	movl	$5, -43452(%rbp)
	movl	$5, -43456(%rbp)
	movl	$5, -43460(%rbp)
	movl	$5, -43464(%rbp)
	movl	$5, -43468(%rbp)
	movl	$5, -43472(%rbp)
	movl	$5, -43476(%rbp)
	movl	$5, -43480(%rbp)
	movl	$5, -43484(%rbp)
	movl	$5, -43488(%rbp)
	movl	$5, -43492(%rbp)
	movl	$5, -43496(%rbp)
	movl	$5, -43500(%rbp)
	movl	$5, -43504(%rbp)
	movl	$5, -43508(%rbp)
	movl	$5, -43512(%rbp)
	movl	$5, -43516(%rbp)
	movl	$5, -43520(%rbp)
	movl	$5, -43524(%rbp)
	movl	$5, -43528(%rbp)
	movl	$5, -43532(%rbp)
	movl	$5, -43536(%rbp)
	movl	$5, -43540(%rbp)
	movl	$5, -43544(%rbp)
	movl	$5, -43548(%rbp)
	movl	$5, -43552(%rbp)
	movl	$5, -43556(%rbp)
	movl	$5, -43560(%rbp)
	movl	$5, -43564(%rbp)
	movl	$5, -43568(%rbp)
	movl	$5, -43572(%rbp)
	movl	$5, -43576(%rbp)
	movl	$5, -43580(%rbp)
	movl	$5, -43584(%rbp)
	movl	$5, -43588(%rbp)
	movl	$5, -43592(%rbp)
	movl	$5, -43596(%rbp)
	movl	$5, -43600(%rbp)
	movl	$5, -43604(%rbp)
	movl	$5, -43608(%rbp)
	movl	$5, -43612(%rbp)
	movl	$5, -43616(%rbp)
	movl	$5, -43620(%rbp)
	movl	$5, -43624(%rbp)
	movl	$5, -43628(%rbp)
	movl	$5, -43632(%rbp)
	movl	$5, -43636(%rbp)
	movl	$5, -43640(%rbp)
	movl	$5, -43644(%rbp)
	movl	$5, -43648(%rbp)
	movl	$5, -43652(%rbp)
	movl	$5, -43656(%rbp)
	movl	$5, -43660(%rbp)
	movl	$5, -43664(%rbp)
	movl	$5, -43668(%rbp)
	movl	$5, -43672(%rbp)
	movl	$5, -43676(%rbp)
	movl	$5, -43680(%rbp)
	movl	$5, -43684(%rbp)
	movl	$5, -43688(%rbp)
	movl	$5, -43692(%rbp)
	movl	$5, -43696(%rbp)
	movl	$5, -43700(%rbp)
	movl	$5, -43704(%rbp)
	movl	$5, -43708(%rbp)
	movl	$5, -43712(%rbp)
	movl	$5, -43716(%rbp)
	movl	$5, -43720(%rbp)
	movl	$5, -43724(%rbp)
	movl	$5, -43728(%rbp)
	movl	$5, -43732(%rbp)
	movl	$5, -43736(%rbp)
	movl	$5, -43740(%rbp)
	movl	$5, -43744(%rbp)
	movl	$5, -43748(%rbp)
	movl	$5, -43752(%rbp)
	movl	$5, -43756(%rbp)
